ARM GAS  C:\Users\binhp\AppData\Local\Temp\ccSTGeG0.s 			page 1


   1              		.cpu cortex-m3
   2              		.arch armv7-m
   3              		.fpu softvfp
   4              		.eabi_attribute 20, 1
   5              		.eabi_attribute 21, 1
   6              		.eabi_attribute 23, 3
   7              		.eabi_attribute 24, 1
   8              		.eabi_attribute 25, 1
   9              		.eabi_attribute 26, 1
  10              		.eabi_attribute 30, 1
  11              		.eabi_attribute 34, 1
  12              		.eabi_attribute 18, 4
  13              		.file	"mpu6050.c"
  14              		.text
  15              	.Ltext0:
  16              		.cfi_sections	.debug_frame
  17              		.file 1 "../../../src/mpu6050.c"
  18              		.section	.text.mpu6050_get_sys_cfg,"ax",%progbits
  19              		.align	1
  20              		.global	mpu6050_get_sys_cfg
  21              		.syntax unified
  22              		.thumb
  23              		.thumb_func
  25              	mpu6050_get_sys_cfg:
  26              	.LVL0:
  27              	.LFB3:
   1:../../../src/mpu6050.c **** #include "../inc/mpu6050.h"
   2:../../../src/mpu6050.c **** #include "../inc/mpu6050_registers.h"
   3:../../../src/mpu6050.c **** #include "../inc/mpu6050_i2c.h"
   4:../../../src/mpu6050.c **** 
   5:../../../src/mpu6050.c **** static const float gyro_sens[] = {
   6:../../../src/mpu6050.c ****     GYRO_SENS_250,
   7:../../../src/mpu6050.c ****     GYRO_SENS_500,
   8:../../../src/mpu6050.c ****     GYRO_SENS_1000,
   9:../../../src/mpu6050.c ****     GYRO_SENS_2000};
  10:../../../src/mpu6050.c **** 
  11:../../../src/mpu6050.c **** static const float accel_sens[] = {
  12:../../../src/mpu6050.c ****     ACCEL_SENS_2G,
  13:../../../src/mpu6050.c ****     ACCEL_SENS_4G,
  14:../../../src/mpu6050.c ****     ACCEL_SENS_8G,
  15:../../../src/mpu6050.c ****     ACCEL_SENS_16G};
  16:../../../src/mpu6050.c **** 
  17:../../../src/mpu6050.c **** static mpu_cfg_t _cfg;
  18:../../../src/mpu6050.c **** /*======================== HANDY FUNCTIONS ===========================*/
  19:../../../src/mpu6050.c **** 
  20:../../../src/mpu6050.c **** void mpu6050_init_reg(void)
  21:../../../src/mpu6050.c **** {
  22:../../../src/mpu6050.c ****     mpu6050_cfg_set_smprt_div(DEF_SAMPLE_RATE_DIV);
  23:../../../src/mpu6050.c ****     mpu6050_cfg_set_config(DEF_FSYNC, DEF_DLPF);
  24:../../../src/mpu6050.c ****     mpu6050_cfg_gyro(DEF_DISABLE_TEST, DEF_GYR_CFG);
  25:../../../src/mpu6050.c ****     mpu6050_cfg_accel(DEF_DISABLE_TEST, DEF_ACC_CFG);
  26:../../../src/mpu6050.c **** #if defined(USE_INT_PIN)
  27:../../../src/mpu6050.c ****     mpu6050_cfg_int_pin(DEF_INT_LVL, DEF_INT_OP, DEF_EN_LATCH,
  28:../../../src/mpu6050.c ****                         DEF_INT_CLR_MODE, DEF_FSYNC_LV, DEF_DIS_FSYNC_INT,
  29:../../../src/mpu6050.c ****                         DEF_DIS_I2C_BYPASS);
  30:../../../src/mpu6050.c **** 
  31:../../../src/mpu6050.c ****     mpu6050_cfg_int_mode(DEF_EN_MOT_INT, DEF_DIS_FFULL_INT, DEF_DIS_I2C_MST_INT, DEF_DIS_DATA_RDY);
ARM GAS  C:\Users\binhp\AppData\Local\Temp\ccSTGeG0.s 			page 2


  32:../../../src/mpu6050.c **** 
  33:../../../src/mpu6050.c **** #endif
  34:../../../src/mpu6050.c **** }
  35:../../../src/mpu6050.c **** 
  36:../../../src/mpu6050.c **** int mpu6050_get_raw_data(mpu_rawdata_t *r_data)
  37:../../../src/mpu6050.c **** {
  38:../../../src/mpu6050.c ****     mpu6050_get_accel_raw(&r_data);
  39:../../../src/mpu6050.c ****     mpu6050_get_temp_raw(&r_data);
  40:../../../src/mpu6050.c ****     mpu6050_get_gyro_raw(&r_data);
  41:../../../src/mpu6050.c **** 
  42:../../../src/mpu6050.c ****     return 0;
  43:../../../src/mpu6050.c **** }
  44:../../../src/mpu6050.c **** 
  45:../../../src/mpu6050.c **** int mpu6050_raw_data_to_readable_data(mpu_data_t *data, mpu_rawdata_t *r_data)
  46:../../../src/mpu6050.c **** {
  47:../../../src/mpu6050.c ****     if (!data || !r_data)
  48:../../../src/mpu6050.c ****     {
  49:../../../src/mpu6050.c ****         return -1; // Return error if NULL pointers are passed
  50:../../../src/mpu6050.c ****     }
  51:../../../src/mpu6050.c **** 
  52:../../../src/mpu6050.c ****     mpu_cfg_t mpu_cfg;
  53:../../../src/mpu6050.c **** 
  54:../../../src/mpu6050.c ****     mpu6050_get_fs(&mpu_cfg);
  55:../../../src/mpu6050.c **** 
  56:../../../src/mpu6050.c ****     // Convert acceleration raw values to g (gravity)
  57:../../../src/mpu6050.c ****     data->accel.x = r_data->accel_raw.x / mpu_cfg.fs_range.accel;
  58:../../../src/mpu6050.c ****     data->accel.y = r_data->accel_raw.y / mpu_cfg.fs_range.accel;
  59:../../../src/mpu6050.c ****     data->accel.z = r_data->accel_raw.z / mpu_cfg.fs_range.accel;
  60:../../../src/mpu6050.c **** 
  61:../../../src/mpu6050.c ****     // Convert gyroscope raw values to degrees per second (°/s)
  62:../../../src/mpu6050.c ****     data->gyro.x = r_data->gyro_raw.x / mpu_cfg.fs_range.gyro;
  63:../../../src/mpu6050.c ****     data->gyro.y = r_data->gyro_raw.y / mpu_cfg.fs_range.gyro;
  64:../../../src/mpu6050.c ****     data->gyro.z = r_data->gyro_raw.z / mpu_cfg.fs_range.gyro;
  65:../../../src/mpu6050.c **** 
  66:../../../src/mpu6050.c ****     // Convert temperature raw value to degrees Celsius
  67:../../../src/mpu6050.c ****     data->tempt = (r_data->tempt_raw / 340.0f) + 36.53f;
  68:../../../src/mpu6050.c **** 
  69:../../../src/mpu6050.c ****     return 0; // Success
  70:../../../src/mpu6050.c **** }
  71:../../../src/mpu6050.c **** 
  72:../../../src/mpu6050.c **** mpu_cfg_t mpu6050_get_sys_cfg(void)
  73:../../../src/mpu6050.c **** {
  28              		.loc 1 73 1 view -0
  29              		.cfi_startproc
  30              		@ args = 0, pretend = 0, frame = 0
  31              		@ frame_needed = 0, uses_anonymous_args = 0
  32              		.loc 1 73 1 is_stmt 0 view .LVU1
  33 0000 10B5     		push	{r4, lr}
  34              	.LCFI0:
  35              		.cfi_def_cfa_offset 8
  36              		.cfi_offset 4, -8
  37              		.cfi_offset 14, -4
  38 0002 8646     		mov	lr, r0
  74:../../../src/mpu6050.c ****     return _cfg;
  39              		.loc 1 74 5 is_stmt 1 view .LVU2
  40              		.loc 1 74 12 is_stmt 0 view .LVU3
  41 0004 8446     		mov	ip, r0
ARM GAS  C:\Users\binhp\AppData\Local\Temp\ccSTGeG0.s 			page 3


  42 0006 054C     		ldr	r4, .L3
  43 0008 0FCC     		ldmia	r4!, {r0, r1, r2, r3}
  44              	.LVL1:
  45              		.loc 1 74 12 view .LVU4
  46 000a ACE80F00 		stmia	ip!, {r0, r1, r2, r3}
  47              	.LVL2:
  48              		.loc 1 74 12 view .LVU5
  49 000e 94E80700 		ldm	r4, {r0, r1, r2}
  50 0012 8CE80700 		stm	ip, {r0, r1, r2}
  75:../../../src/mpu6050.c **** }
  51              		.loc 1 75 1 view .LVU6
  52 0016 7046     		mov	r0, lr
  53 0018 10BD     		pop	{r4, pc}
  54              	.L4:
  55 001a 00BF     		.align	2
  56              	.L3:
  57 001c 00000000 		.word	_cfg
  58              		.cfi_endproc
  59              	.LFE3:
  61              		.global	__aeabi_ui2f
  62              		.section	.text.mpu6050_cfg_set_smprt_div,"ax",%progbits
  63              		.align	1
  64              		.global	mpu6050_cfg_set_smprt_div
  65              		.syntax unified
  66              		.thumb
  67              		.thumb_func
  69              	mpu6050_cfg_set_smprt_div:
  70              	.LVL3:
  71              	.LFB4:
  76:../../../src/mpu6050.c **** 
  77:../../../src/mpu6050.c **** /*======================== SETUP FUNCTIONS ===========================*/
  78:../../../src/mpu6050.c **** 
  79:../../../src/mpu6050.c **** /* REG 0x19*/
  80:../../../src/mpu6050.c **** void mpu6050_cfg_set_smprt_div(uint8_t val)
  81:../../../src/mpu6050.c **** {
  72              		.loc 1 81 1 is_stmt 1 view -0
  73              		.cfi_startproc
  74              		@ args = 0, pretend = 0, frame = 0
  75              		@ frame_needed = 0, uses_anonymous_args = 0
  76              		.loc 1 81 1 is_stmt 0 view .LVU8
  77 0000 10B5     		push	{r4, lr}
  78              	.LCFI1:
  79              		.cfi_def_cfa_offset 8
  80              		.cfi_offset 4, -8
  81              		.cfi_offset 14, -4
  82 0002 0446     		mov	r4, r0
  82:../../../src/mpu6050.c ****     mpu6050_i2c_write_reg(REG_SMPRT_DIV, val);
  83              		.loc 1 82 5 is_stmt 1 view .LVU9
  84 0004 0146     		mov	r1, r0
  85 0006 1920     		movs	r0, #25
  86              	.LVL4:
  87              		.loc 1 82 5 is_stmt 0 view .LVU10
  88 0008 FFF7FEFF 		bl	mpu6050_i2c_write_reg
  89              	.LVL5:
  83:../../../src/mpu6050.c **** 
  84:../../../src/mpu6050.c ****     _cfg.smprt.div = val;
  90              		.loc 1 84 5 is_stmt 1 view .LVU11
ARM GAS  C:\Users\binhp\AppData\Local\Temp\ccSTGeG0.s 			page 4


  91              		.loc 1 84 20 is_stmt 0 view .LVU12
  92 000c 2046     		mov	r0, r4
  93 000e FFF7FEFF 		bl	__aeabi_ui2f
  94              	.LVL6:
  95 0012 014B     		ldr	r3, .L7
  96 0014 9860     		str	r0, [r3, #8]	@ float
  85:../../../src/mpu6050.c **** }
  97              		.loc 1 85 1 view .LVU13
  98 0016 10BD     		pop	{r4, pc}
  99              	.L8:
 100              		.align	2
 101              	.L7:
 102 0018 00000000 		.word	_cfg
 103              		.cfi_endproc
 104              	.LFE4:
 106              		.section	.text.mpu6050_cfg_set_config,"ax",%progbits
 107              		.align	1
 108              		.global	mpu6050_cfg_set_config
 109              		.syntax unified
 110              		.thumb
 111              		.thumb_func
 113              	mpu6050_cfg_set_config:
 114              	.LVL7:
 115              	.LFB5:
  86:../../../src/mpu6050.c **** 
  87:../../../src/mpu6050.c **** /* REG 0x1A*/
  88:../../../src/mpu6050.c **** void mpu6050_cfg_set_config(uint8_t fsync, uint8_t dlpf)
  89:../../../src/mpu6050.c **** {
 116              		.loc 1 89 1 is_stmt 1 view -0
 117              		.cfi_startproc
 118              		@ args = 0, pretend = 0, frame = 0
 119              		@ frame_needed = 0, uses_anonymous_args = 0
 120              		.loc 1 89 1 is_stmt 0 view .LVU15
 121 0000 10B5     		push	{r4, lr}
 122              	.LCFI2:
 123              		.cfi_def_cfa_offset 8
 124              		.cfi_offset 4, -8
 125              		.cfi_offset 14, -4
 126 0002 0C46     		mov	r4, r1
  90:../../../src/mpu6050.c ****     mpu6050_i2c_write_reg(REG_CFG, (fsync << 3) | dlpf);
 127              		.loc 1 90 5 is_stmt 1 view .LVU16
 128 0004 41EAC001 		orr	r1, r1, r0, lsl #3
 129              	.LVL8:
 130              		.loc 1 90 5 is_stmt 0 view .LVU17
 131 0008 C9B2     		uxtb	r1, r1
 132 000a 1A20     		movs	r0, #26
 133              	.LVL9:
 134              		.loc 1 90 5 view .LVU18
 135 000c FFF7FEFF 		bl	mpu6050_i2c_write_reg
 136              	.LVL10:
  91:../../../src/mpu6050.c ****     _cfg.filter.dlpf = dlpf;
 137              		.loc 1 91 5 is_stmt 1 view .LVU19
 138              		.loc 1 91 22 is_stmt 0 view .LVU20
 139 0010 014B     		ldr	r3, .L11
 140 0012 1C75     		strb	r4, [r3, #20]
  92:../../../src/mpu6050.c **** }
 141              		.loc 1 92 1 view .LVU21
ARM GAS  C:\Users\binhp\AppData\Local\Temp\ccSTGeG0.s 			page 5


 142 0014 10BD     		pop	{r4, pc}
 143              	.L12:
 144 0016 00BF     		.align	2
 145              	.L11:
 146 0018 00000000 		.word	_cfg
 147              		.cfi_endproc
 148              	.LFE5:
 150              		.section	.text.mpu6050_cfg_gyro,"ax",%progbits
 151              		.align	1
 152              		.global	mpu6050_cfg_gyro
 153              		.syntax unified
 154              		.thumb
 155              		.thumb_func
 157              	mpu6050_cfg_gyro:
 158              	.LVL11:
 159              	.LFB6:
  93:../../../src/mpu6050.c **** 
  94:../../../src/mpu6050.c **** /* REG 0x1B */
  95:../../../src/mpu6050.c **** void mpu6050_cfg_gyro(uint8_t en_gyr_test, uint8_t fs_sel)
  96:../../../src/mpu6050.c **** {
 160              		.loc 1 96 1 is_stmt 1 view -0
 161              		.cfi_startproc
 162              		@ args = 0, pretend = 0, frame = 0
 163              		@ frame_needed = 0, uses_anonymous_args = 0
 164              		.loc 1 96 1 is_stmt 0 view .LVU23
 165 0000 08B5     		push	{r3, lr}
 166              	.LCFI3:
 167              		.cfi_def_cfa_offset 8
 168              		.cfi_offset 3, -8
 169              		.cfi_offset 14, -4
  97:../../../src/mpu6050.c ****     uint8_t en_gyr_test_val = 0;
 170              		.loc 1 97 5 is_stmt 1 view .LVU24
 171              	.LVL12:
  98:../../../src/mpu6050.c ****     if (en_gyr_test)
 172              		.loc 1 98 5 view .LVU25
 173              		.loc 1 98 8 is_stmt 0 view .LVU26
 174 0002 0346     		mov	r3, r0
 175 0004 18B1     		cbz	r0, .L14
  99:../../../src/mpu6050.c ****     {
 100:../../../src/mpu6050.c ****         en_gyr_test_val = 0xE0;
 176              		.loc 1 100 9 is_stmt 1 view .LVU27
 177              	.LVL13:
 101:../../../src/mpu6050.c ****         _cfg.test.is_gyr_en = 1;
 178              		.loc 1 101 9 view .LVU28
 179              		.loc 1 101 29 is_stmt 0 view .LVU29
 180 0006 054B     		ldr	r3, .L16
 181 0008 0122     		movs	r2, #1
 182 000a 5A75     		strb	r2, [r3, #21]
 100:../../../src/mpu6050.c ****         _cfg.test.is_gyr_en = 1;
 183              		.loc 1 100 25 view .LVU30
 184 000c E023     		movs	r3, #224
 185              	.LVL14:
 186              	.L14:
 102:../../../src/mpu6050.c ****     }
 103:../../../src/mpu6050.c ****     mpu6050_i2c_write_reg(REG_GYRO_CFG, en_gyr_test_val | (fs_sel << 3));
 187              		.loc 1 103 5 is_stmt 1 view .LVU31
 188 000e 43EAC101 		orr	r1, r3, r1, lsl #3
ARM GAS  C:\Users\binhp\AppData\Local\Temp\ccSTGeG0.s 			page 6


 189              	.LVL15:
 190              		.loc 1 103 5 is_stmt 0 view .LVU32
 191 0012 C9B2     		uxtb	r1, r1
 192 0014 1B20     		movs	r0, #27
 193              	.LVL16:
 194              		.loc 1 103 5 view .LVU33
 195 0016 FFF7FEFF 		bl	mpu6050_i2c_write_reg
 196              	.LVL17:
 104:../../../src/mpu6050.c **** }
 197              		.loc 1 104 1 view .LVU34
 198 001a 08BD     		pop	{r3, pc}
 199              	.L17:
 200              		.align	2
 201              	.L16:
 202 001c 00000000 		.word	_cfg
 203              		.cfi_endproc
 204              	.LFE6:
 206              		.section	.text.mpu6050_cfg_accel,"ax",%progbits
 207              		.align	1
 208              		.global	mpu6050_cfg_accel
 209              		.syntax unified
 210              		.thumb
 211              		.thumb_func
 213              	mpu6050_cfg_accel:
 214              	.LVL18:
 215              	.LFB7:
 105:../../../src/mpu6050.c **** 
 106:../../../src/mpu6050.c **** /* REG 0x1C */
 107:../../../src/mpu6050.c **** void mpu6050_cfg_accel(uint8_t en_acc_test, uint8_t fs_sel)
 108:../../../src/mpu6050.c **** {
 216              		.loc 1 108 1 is_stmt 1 view -0
 217              		.cfi_startproc
 218              		@ args = 0, pretend = 0, frame = 0
 219              		@ frame_needed = 0, uses_anonymous_args = 0
 220              		.loc 1 108 1 is_stmt 0 view .LVU36
 221 0000 08B5     		push	{r3, lr}
 222              	.LCFI4:
 223              		.cfi_def_cfa_offset 8
 224              		.cfi_offset 3, -8
 225              		.cfi_offset 14, -4
 109:../../../src/mpu6050.c ****     uint8_t en_acc_test_val = 0;
 226              		.loc 1 109 5 is_stmt 1 view .LVU37
 227              	.LVL19:
 110:../../../src/mpu6050.c ****     if (en_acc_test)
 228              		.loc 1 110 5 view .LVU38
 229              		.loc 1 110 8 is_stmt 0 view .LVU39
 230 0002 0346     		mov	r3, r0
 231 0004 18B1     		cbz	r0, .L19
 111:../../../src/mpu6050.c ****     {
 112:../../../src/mpu6050.c ****         en_acc_test_val = 0xE0;
 232              		.loc 1 112 9 is_stmt 1 view .LVU40
 233              	.LVL20:
 113:../../../src/mpu6050.c ****         _cfg.test.is_accel_en = 1;
 234              		.loc 1 113 9 view .LVU41
 235              		.loc 1 113 31 is_stmt 0 view .LVU42
 236 0006 054B     		ldr	r3, .L21
 237 0008 0122     		movs	r2, #1
ARM GAS  C:\Users\binhp\AppData\Local\Temp\ccSTGeG0.s 			page 7


 238 000a 9A75     		strb	r2, [r3, #22]
 112:../../../src/mpu6050.c ****         _cfg.test.is_accel_en = 1;
 239              		.loc 1 112 25 view .LVU43
 240 000c E023     		movs	r3, #224
 241              	.LVL21:
 242              	.L19:
 114:../../../src/mpu6050.c ****     }
 115:../../../src/mpu6050.c ****     mpu6050_i2c_write_reg(REG_ACCEL_CFG, en_acc_test_val | (fs_sel << 3));
 243              		.loc 1 115 5 is_stmt 1 view .LVU44
 244 000e 43EAC101 		orr	r1, r3, r1, lsl #3
 245              	.LVL22:
 246              		.loc 1 115 5 is_stmt 0 view .LVU45
 247 0012 C9B2     		uxtb	r1, r1
 248 0014 1C20     		movs	r0, #28
 249              	.LVL23:
 250              		.loc 1 115 5 view .LVU46
 251 0016 FFF7FEFF 		bl	mpu6050_i2c_write_reg
 252              	.LVL24:
 116:../../../src/mpu6050.c **** }
 253              		.loc 1 116 1 view .LVU47
 254 001a 08BD     		pop	{r3, pc}
 255              	.L22:
 256              		.align	2
 257              	.L21:
 258 001c 00000000 		.word	_cfg
 259              		.cfi_endproc
 260              	.LFE7:
 262              		.section	.text.mpu6050_cfg_set_mot_thr,"ax",%progbits
 263              		.align	1
 264              		.global	mpu6050_cfg_set_mot_thr
 265              		.syntax unified
 266              		.thumb
 267              		.thumb_func
 269              	mpu6050_cfg_set_mot_thr:
 270              	.LVL25:
 271              	.LFB8:
 117:../../../src/mpu6050.c **** 
 118:../../../src/mpu6050.c **** /* REG 0x1F */
 119:../../../src/mpu6050.c **** void mpu6050_cfg_set_mot_thr(uint8_t val)
 120:../../../src/mpu6050.c **** {
 272              		.loc 1 120 1 is_stmt 1 view -0
 273              		.cfi_startproc
 274              		@ args = 0, pretend = 0, frame = 0
 275              		@ frame_needed = 0, uses_anonymous_args = 0
 276              		.loc 1 120 1 is_stmt 0 view .LVU49
 277 0000 10B5     		push	{r4, lr}
 278              	.LCFI5:
 279              		.cfi_def_cfa_offset 8
 280              		.cfi_offset 4, -8
 281              		.cfi_offset 14, -4
 282 0002 0446     		mov	r4, r0
 121:../../../src/mpu6050.c ****     mpu6050_i2c_write_reg(REG_MOT_THR, val);
 283              		.loc 1 121 5 is_stmt 1 view .LVU50
 284 0004 0146     		mov	r1, r0
 285 0006 1F20     		movs	r0, #31
 286              	.LVL26:
 287              		.loc 1 121 5 is_stmt 0 view .LVU51
ARM GAS  C:\Users\binhp\AppData\Local\Temp\ccSTGeG0.s 			page 8


 288 0008 FFF7FEFF 		bl	mpu6050_i2c_write_reg
 289              	.LVL27:
 122:../../../src/mpu6050.c ****     _cfg.mot.thr = val;
 290              		.loc 1 122 5 is_stmt 1 view .LVU52
 291              		.loc 1 122 18 is_stmt 0 view .LVU53
 292 000c 014B     		ldr	r3, .L25
 293 000e 1C76     		strb	r4, [r3, #24]
 123:../../../src/mpu6050.c **** }
 294              		.loc 1 123 1 view .LVU54
 295 0010 10BD     		pop	{r4, pc}
 296              	.L26:
 297 0012 00BF     		.align	2
 298              	.L25:
 299 0014 00000000 		.word	_cfg
 300              		.cfi_endproc
 301              	.LFE8:
 303              		.section	.text.mpu6050_cfg_en_fifo,"ax",%progbits
 304              		.align	1
 305              		.global	mpu6050_cfg_en_fifo
 306              		.syntax unified
 307              		.thumb
 308              		.thumb_func
 310              	mpu6050_cfg_en_fifo:
 311              	.LVL28:
 312              	.LFB9:
 124:../../../src/mpu6050.c **** 
 125:../../../src/mpu6050.c **** /* REG 0x23 */
 126:../../../src/mpu6050.c **** void mpu6050_cfg_en_fifo(uint8_t val)
 127:../../../src/mpu6050.c **** {
 313              		.loc 1 127 1 is_stmt 1 view -0
 314              		.cfi_startproc
 315              		@ args = 0, pretend = 0, frame = 0
 316              		@ frame_needed = 0, uses_anonymous_args = 0
 317              		.loc 1 127 1 is_stmt 0 view .LVU56
 318 0000 08B5     		push	{r3, lr}
 319              	.LCFI6:
 320              		.cfi_def_cfa_offset 8
 321              		.cfi_offset 3, -8
 322              		.cfi_offset 14, -4
 323 0002 0146     		mov	r1, r0
 128:../../../src/mpu6050.c ****     mpu6050_i2c_write_reg(REG_FIFO_EN, val);
 324              		.loc 1 128 5 is_stmt 1 view .LVU57
 325 0004 2320     		movs	r0, #35
 326              	.LVL29:
 327              		.loc 1 128 5 is_stmt 0 view .LVU58
 328 0006 FFF7FEFF 		bl	mpu6050_i2c_write_reg
 329              	.LVL30:
 129:../../../src/mpu6050.c **** }
 330              		.loc 1 129 1 view .LVU59
 331 000a 08BD     		pop	{r3, pc}
 332              		.cfi_endproc
 333              	.LFE9:
 335              		.section	.text.mpu6050_cfg_int_pin,"ax",%progbits
 336              		.align	1
 337              		.global	mpu6050_cfg_int_pin
 338              		.syntax unified
 339              		.thumb
ARM GAS  C:\Users\binhp\AppData\Local\Temp\ccSTGeG0.s 			page 9


 340              		.thumb_func
 342              	mpu6050_cfg_int_pin:
 343              	.LVL31:
 344              	.LFB10:
 130:../../../src/mpu6050.c **** 
 131:../../../src/mpu6050.c **** /* REG 0x37 */
 132:../../../src/mpu6050.c **** void mpu6050_cfg_int_pin(uint8_t int_lvl, uint8_t int_open,
 133:../../../src/mpu6050.c ****                          uint8_t is_latch, uint8_t int_clr_mode,
 134:../../../src/mpu6050.c ****                          uint8_t fsync_int_lv, uint8_t fsync_int_en,
 135:../../../src/mpu6050.c ****                          uint8_t i2c_bypass_en)
 136:../../../src/mpu6050.c **** {
 345              		.loc 1 136 1 is_stmt 1 view -0
 346              		.cfi_startproc
 347              		@ args = 12, pretend = 0, frame = 0
 348              		@ frame_needed = 0, uses_anonymous_args = 0
 349              		.loc 1 136 1 is_stmt 0 view .LVU61
 350 0000 08B5     		push	{r3, lr}
 351              	.LCFI7:
 352              		.cfi_def_cfa_offset 8
 353              		.cfi_offset 3, -8
 354              		.cfi_offset 14, -4
 137:../../../src/mpu6050.c ****     mpu6050_i2c_write_reg(
 355              		.loc 1 137 5 is_stmt 1 view .LVU62
 138:../../../src/mpu6050.c ****         REG_INT_PIN_CFG,
 139:../../../src/mpu6050.c ****         (int_lvl << 7) | (int_open << 6) |
 356              		.loc 1 139 36 is_stmt 0 view .LVU63
 357 0002 8901     		lsls	r1, r1, #6
 358              	.LVL32:
 359              		.loc 1 139 24 view .LVU64
 360 0004 41EAC011 		orr	r1, r1, r0, lsl #7
 361 0008 49B2     		sxtb	r1, r1
 362              		.loc 1 139 42 view .LVU65
 363 000a 41EA4211 		orr	r1, r1, r2, lsl #5
 364 000e 49B2     		sxtb	r1, r1
 140:../../../src/mpu6050.c ****             (is_latch << 5) | (int_clr_mode << 4) |
 365              		.loc 1 140 29 view .LVU66
 366 0010 41EA0311 		orr	r1, r1, r3, lsl #4
 367 0014 49B2     		sxtb	r1, r1
 368              		.loc 1 140 51 view .LVU67
 369 0016 9DF80830 		ldrb	r3, [sp, #8]	@ zero_extendqisi2
 370              	.LVL33:
 371              		.loc 1 140 51 view .LVU68
 372 001a 41EAC301 		orr	r1, r1, r3, lsl #3
 373 001e 49B2     		sxtb	r1, r1
 141:../../../src/mpu6050.c ****             (fsync_int_lv << 3) | (fsync_int_en << 2) |
 374              		.loc 1 141 33 view .LVU69
 375 0020 9DF80C30 		ldrb	r3, [sp, #12]	@ zero_extendqisi2
 376 0024 41EA8301 		orr	r1, r1, r3, lsl #2
 377 0028 49B2     		sxtb	r1, r1
 378              		.loc 1 141 55 view .LVU70
 379 002a 9DF81030 		ldrb	r3, [sp, #16]	@ zero_extendqisi2
 380 002e 41EA4301 		orr	r1, r1, r3, lsl #1
 137:../../../src/mpu6050.c ****         REG_INT_PIN_CFG,
 381              		.loc 1 137 5 view .LVU71
 382 0032 01F0FE01 		and	r1, r1, #254
 383 0036 3720     		movs	r0, #55
 384              	.LVL34:
ARM GAS  C:\Users\binhp\AppData\Local\Temp\ccSTGeG0.s 			page 10


 137:../../../src/mpu6050.c ****         REG_INT_PIN_CFG,
 385              		.loc 1 137 5 view .LVU72
 386 0038 FFF7FEFF 		bl	mpu6050_i2c_write_reg
 387              	.LVL35:
 142:../../../src/mpu6050.c ****             (i2c_bypass_en << 1));
 143:../../../src/mpu6050.c **** }
 388              		.loc 1 143 1 view .LVU73
 389 003c 08BD     		pop	{r3, pc}
 390              		.loc 1 143 1 view .LVU74
 391              		.cfi_endproc
 392              	.LFE10:
 394              		.section	.text.mpu6050_cfg_int_mode,"ax",%progbits
 395              		.align	1
 396              		.global	mpu6050_cfg_int_mode
 397              		.syntax unified
 398              		.thumb
 399              		.thumb_func
 401              	mpu6050_cfg_int_mode:
 402              	.LVL36:
 403              	.LFB11:
 144:../../../src/mpu6050.c **** 
 145:../../../src/mpu6050.c **** /* REG 0x38 */
 146:../../../src/mpu6050.c **** void mpu6050_cfg_int_mode(uint8_t mot, uint8_t ffull, uint8_t i2c_mst_int, uint8_t data_rdy_int)
 147:../../../src/mpu6050.c **** {
 404              		.loc 1 147 1 is_stmt 1 view -0
 405              		.cfi_startproc
 406              		@ args = 0, pretend = 0, frame = 0
 407              		@ frame_needed = 0, uses_anonymous_args = 0
 408              		.loc 1 147 1 is_stmt 0 view .LVU76
 409 0000 08B5     		push	{r3, lr}
 410              	.LCFI8:
 411              		.cfi_def_cfa_offset 8
 412              		.cfi_offset 3, -8
 413              		.cfi_offset 14, -4
 148:../../../src/mpu6050.c ****     mpu6050_i2c_write_reg(
 414              		.loc 1 148 5 is_stmt 1 view .LVU77
 149:../../../src/mpu6050.c ****         REG_INT_EN,
 150:../../../src/mpu6050.c ****         (mot << 6) | (ffull << 4) |
 415              		.loc 1 150 29 is_stmt 0 view .LVU78
 416 0002 0901     		lsls	r1, r1, #4
 417              	.LVL37:
 418              		.loc 1 150 20 view .LVU79
 419 0004 41EA8011 		orr	r1, r1, r0, lsl #6
 420 0008 49B2     		sxtb	r1, r1
 421              		.loc 1 150 35 view .LVU80
 422 000a 41EAC201 		orr	r1, r1, r2, lsl #3
 423 000e 49B2     		sxtb	r1, r1
 148:../../../src/mpu6050.c ****     mpu6050_i2c_write_reg(
 424              		.loc 1 148 5 view .LVU81
 425 0010 1943     		orrs	r1, r1, r3
 426 0012 C9B2     		uxtb	r1, r1
 427 0014 3820     		movs	r0, #56
 428              	.LVL38:
 148:../../../src/mpu6050.c ****     mpu6050_i2c_write_reg(
 429              		.loc 1 148 5 view .LVU82
 430 0016 FFF7FEFF 		bl	mpu6050_i2c_write_reg
 431              	.LVL39:
ARM GAS  C:\Users\binhp\AppData\Local\Temp\ccSTGeG0.s 			page 11


 151:../../../src/mpu6050.c ****             (i2c_mst_int << 3) | (data_rdy_int));
 152:../../../src/mpu6050.c **** }
 432              		.loc 1 152 1 view .LVU83
 433 001a 08BD     		pop	{r3, pc}
 434              		.cfi_endproc
 435              	.LFE11:
 437              		.section	.text.mpu6050_init_reg,"ax",%progbits
 438              		.align	1
 439              		.global	mpu6050_init_reg
 440              		.syntax unified
 441              		.thumb
 442              		.thumb_func
 444              	mpu6050_init_reg:
 445              	.LFB0:
  21:../../../src/mpu6050.c ****     mpu6050_cfg_set_smprt_div(DEF_SAMPLE_RATE_DIV);
 446              		.loc 1 21 1 is_stmt 1 view -0
 447              		.cfi_startproc
 448              		@ args = 0, pretend = 0, frame = 0
 449              		@ frame_needed = 0, uses_anonymous_args = 0
 450 0000 10B5     		push	{r4, lr}
 451              	.LCFI9:
 452              		.cfi_def_cfa_offset 8
 453              		.cfi_offset 4, -8
 454              		.cfi_offset 14, -4
 455 0002 84B0     		sub	sp, sp, #16
 456              	.LCFI10:
 457              		.cfi_def_cfa_offset 24
  22:../../../src/mpu6050.c ****     mpu6050_cfg_set_config(DEF_FSYNC, DEF_DLPF);
 458              		.loc 1 22 5 view .LVU85
 459 0004 0020     		movs	r0, #0
 460 0006 FFF7FEFF 		bl	mpu6050_cfg_set_smprt_div
 461              	.LVL40:
  23:../../../src/mpu6050.c ****     mpu6050_cfg_gyro(DEF_DISABLE_TEST, DEF_GYR_CFG);
 462              		.loc 1 23 5 view .LVU86
 463 000a 0221     		movs	r1, #2
 464 000c 0020     		movs	r0, #0
 465 000e FFF7FEFF 		bl	mpu6050_cfg_set_config
 466              	.LVL41:
  24:../../../src/mpu6050.c ****     mpu6050_cfg_accel(DEF_DISABLE_TEST, DEF_ACC_CFG);
 467              		.loc 1 24 5 view .LVU87
 468 0012 0121     		movs	r1, #1
 469 0014 0020     		movs	r0, #0
 470 0016 FFF7FEFF 		bl	mpu6050_cfg_gyro
 471              	.LVL42:
  25:../../../src/mpu6050.c **** #if defined(USE_INT_PIN)
 472              		.loc 1 25 5 view .LVU88
 473 001a 0021     		movs	r1, #0
 474 001c 0846     		mov	r0, r1
 475 001e FFF7FEFF 		bl	mpu6050_cfg_accel
 476              	.LVL43:
  27:../../../src/mpu6050.c ****                         DEF_INT_CLR_MODE, DEF_FSYNC_LV, DEF_DIS_FSYNC_INT,
 477              		.loc 1 27 5 view .LVU89
 478 0022 0024     		movs	r4, #0
 479 0024 0294     		str	r4, [sp, #8]
 480 0026 0194     		str	r4, [sp, #4]
 481 0028 0094     		str	r4, [sp]
 482 002a 2346     		mov	r3, r4
ARM GAS  C:\Users\binhp\AppData\Local\Temp\ccSTGeG0.s 			page 12


 483 002c 0122     		movs	r2, #1
 484 002e 2146     		mov	r1, r4
 485 0030 2046     		mov	r0, r4
 486 0032 FFF7FEFF 		bl	mpu6050_cfg_int_pin
 487              	.LVL44:
  31:../../../src/mpu6050.c **** 
 488              		.loc 1 31 5 view .LVU90
 489 0036 2346     		mov	r3, r4
 490 0038 2246     		mov	r2, r4
 491 003a 2146     		mov	r1, r4
 492 003c 0120     		movs	r0, #1
 493 003e FFF7FEFF 		bl	mpu6050_cfg_int_mode
 494              	.LVL45:
  34:../../../src/mpu6050.c **** 
 495              		.loc 1 34 1 is_stmt 0 view .LVU91
 496 0042 04B0     		add	sp, sp, #16
 497              	.LCFI11:
 498              		.cfi_def_cfa_offset 8
 499              		@ sp needed
 500 0044 10BD     		pop	{r4, pc}
 501              		.cfi_endproc
 502              	.LFE0:
 504              		.section	.text.mpu6050_cfg_pwr_mng,"ax",%progbits
 505              		.align	1
 506              		.global	mpu6050_cfg_pwr_mng
 507              		.syntax unified
 508              		.thumb
 509              		.thumb_func
 511              	mpu6050_cfg_pwr_mng:
 512              	.LVL46:
 513              	.LFB12:
 153:../../../src/mpu6050.c **** 
 154:../../../src/mpu6050.c **** /* REG 0x6B*/
 155:../../../src/mpu6050.c **** void mpu6050_cfg_pwr_mng(uint8_t mode)
 156:../../../src/mpu6050.c **** {
 514              		.loc 1 156 1 is_stmt 1 view -0
 515              		.cfi_startproc
 516              		@ args = 0, pretend = 0, frame = 0
 517              		@ frame_needed = 0, uses_anonymous_args = 0
 518              		.loc 1 156 1 is_stmt 0 view .LVU93
 519 0000 08B5     		push	{r3, lr}
 520              	.LCFI12:
 521              		.cfi_def_cfa_offset 8
 522              		.cfi_offset 3, -8
 523              		.cfi_offset 14, -4
 524 0002 0146     		mov	r1, r0
 157:../../../src/mpu6050.c ****     mpu6050_i2c_write_reg(REG_PWR_MGMT_1, mode);
 525              		.loc 1 157 5 is_stmt 1 view .LVU94
 526 0004 6B20     		movs	r0, #107
 527              	.LVL47:
 528              		.loc 1 157 5 is_stmt 0 view .LVU95
 529 0006 FFF7FEFF 		bl	mpu6050_i2c_write_reg
 530              	.LVL48:
 158:../../../src/mpu6050.c **** }
 531              		.loc 1 158 1 view .LVU96
 532 000a 08BD     		pop	{r3, pc}
 533              		.cfi_endproc
ARM GAS  C:\Users\binhp\AppData\Local\Temp\ccSTGeG0.s 			page 13


 534              	.LFE12:
 536              		.section	.text.mpu6050_get_fs,"ax",%progbits
 537              		.align	1
 538              		.global	mpu6050_get_fs
 539              		.syntax unified
 540              		.thumb
 541              		.thumb_func
 543              	mpu6050_get_fs:
 544              	.LVL49:
 545              	.LFB13:
 159:../../../src/mpu6050.c **** /*======================== GET DATA FUNCTIONS ===========================*/
 160:../../../src/mpu6050.c **** 
 161:../../../src/mpu6050.c **** int mpu6050_get_fs(mpu_cfg_t *mpu_cfg)
 162:../../../src/mpu6050.c **** {
 546              		.loc 1 162 1 is_stmt 1 view -0
 547              		.cfi_startproc
 548              		@ args = 0, pretend = 0, frame = 8
 549              		@ frame_needed = 0, uses_anonymous_args = 0
 550              		.loc 1 162 1 is_stmt 0 view .LVU98
 551 0000 10B5     		push	{r4, lr}
 552              	.LCFI13:
 553              		.cfi_def_cfa_offset 8
 554              		.cfi_offset 4, -8
 555              		.cfi_offset 14, -4
 556 0002 82B0     		sub	sp, sp, #8
 557              	.LCFI14:
 558              		.cfi_def_cfa_offset 16
 559 0004 0446     		mov	r4, r0
 163:../../../src/mpu6050.c ****     uint8_t size = 2;
 560              		.loc 1 163 5 is_stmt 1 view .LVU99
 561              	.LVL50:
 164:../../../src/mpu6050.c ****     uint8_t val[size];
 562              		.loc 1 164 5 view .LVU100
 165:../../../src/mpu6050.c **** 
 166:../../../src/mpu6050.c ****     mpu6050_i2c_read_reg(REG_GYRO_CFG, val, size);
 563              		.loc 1 166 5 view .LVU101
 564 0006 0222     		movs	r2, #2
 565 0008 01A9     		add	r1, sp, #4
 566              	.LVL51:
 567              		.loc 1 166 5 is_stmt 0 view .LVU102
 568 000a 1B20     		movs	r0, #27
 569              	.LVL52:
 570              		.loc 1 166 5 view .LVU103
 571 000c FFF7FEFF 		bl	mpu6050_i2c_read_reg
 572              	.LVL53:
 167:../../../src/mpu6050.c **** 
 168:../../../src/mpu6050.c ****     const uint8_t gyro_index = (val[0] & 0b00011000) >> 3;
 573              		.loc 1 168 5 is_stmt 1 view .LVU104
 574              		.loc 1 168 36 is_stmt 0 view .LVU105
 575 0010 9DF80420 		ldrb	r2, [sp, #4]	@ zero_extendqisi2
 576              		.loc 1 168 19 view .LVU106
 577 0014 C2F3C102 		ubfx	r2, r2, #3, #2
 578              	.LVL54:
 169:../../../src/mpu6050.c ****     const uint8_t accel_index = (val[1] & 0b00011000) >> 3;
 579              		.loc 1 169 5 is_stmt 1 view .LVU107
 580              		.loc 1 169 37 is_stmt 0 view .LVU108
 581 0018 9DF80530 		ldrb	r3, [sp, #5]	@ zero_extendqisi2
ARM GAS  C:\Users\binhp\AppData\Local\Temp\ccSTGeG0.s 			page 14


 582              		.loc 1 169 19 view .LVU109
 583 001c C3F3C103 		ubfx	r3, r3, #3, #2
 584              	.LVL55:
 170:../../../src/mpu6050.c **** 
 171:../../../src/mpu6050.c ****     mpu_cfg->fs_range.gyro = gyro_sens[gyro_index];
 585              		.loc 1 171 5 is_stmt 1 view .LVU110
 586              		.loc 1 171 39 is_stmt 0 view .LVU111
 587 0020 0549     		ldr	r1, .L39
 588 0022 51F82220 		ldr	r2, [r1, r2, lsl #2]	@ float
 589              	.LVL56:
 590              		.loc 1 171 28 view .LVU112
 591 0026 6260     		str	r2, [r4, #4]	@ float
 172:../../../src/mpu6050.c ****     mpu_cfg->fs_range.accel = accel_sens[accel_index];
 592              		.loc 1 172 5 is_stmt 1 view .LVU113
 593              		.loc 1 172 41 is_stmt 0 view .LVU114
 594 0028 044A     		ldr	r2, .L39+4
 595 002a 52F82330 		ldr	r3, [r2, r3, lsl #2]	@ float
 596              	.LVL57:
 597              		.loc 1 172 29 view .LVU115
 598 002e 2360     		str	r3, [r4]	@ float
 173:../../../src/mpu6050.c **** 
 174:../../../src/mpu6050.c ****     return 0;
 599              		.loc 1 174 5 is_stmt 1 view .LVU116
 175:../../../src/mpu6050.c **** }
 600              		.loc 1 175 1 is_stmt 0 view .LVU117
 601 0030 0020     		movs	r0, #0
 602 0032 02B0     		add	sp, sp, #8
 603              	.LCFI15:
 604              		.cfi_def_cfa_offset 8
 605              		@ sp needed
 606 0034 10BD     		pop	{r4, pc}
 607              	.LVL58:
 608              	.L40:
 609              		.loc 1 175 1 view .LVU118
 610 0036 00BF     		.align	2
 611              	.L39:
 612 0038 00000000 		.word	gyro_sens
 613 003c 00000000 		.word	accel_sens
 614              		.cfi_endproc
 615              	.LFE13:
 617              		.global	__aeabi_i2f
 618              		.global	__aeabi_fdiv
 619              		.global	__aeabi_fadd
 620              		.section	.text.mpu6050_raw_data_to_readable_data,"ax",%progbits
 621              		.align	1
 622              		.global	mpu6050_raw_data_to_readable_data
 623              		.syntax unified
 624              		.thumb
 625              		.thumb_func
 627              	mpu6050_raw_data_to_readable_data:
 628              	.LVL59:
 629              	.LFB2:
  46:../../../src/mpu6050.c ****     if (!data || !r_data)
 630              		.loc 1 46 1 is_stmt 1 view -0
 631              		.cfi_startproc
 632              		@ args = 0, pretend = 0, frame = 32
 633              		@ frame_needed = 0, uses_anonymous_args = 0
ARM GAS  C:\Users\binhp\AppData\Local\Temp\ccSTGeG0.s 			page 15


  47:../../../src/mpu6050.c ****     {
 634              		.loc 1 47 5 view .LVU120
  47:../../../src/mpu6050.c ****     {
 635              		.loc 1 47 8 is_stmt 0 view .LVU121
 636 0000 0028     		cmp	r0, #0
 637 0002 48D0     		beq	.L43
  46:../../../src/mpu6050.c ****     if (!data || !r_data)
 638              		.loc 1 46 1 discriminator 1 view .LVU122
 639 0004 70B5     		push	{r4, r5, r6, lr}
 640              	.LCFI16:
 641              		.cfi_def_cfa_offset 16
 642              		.cfi_offset 4, -16
 643              		.cfi_offset 5, -12
 644              		.cfi_offset 6, -8
 645              		.cfi_offset 14, -4
 646 0006 88B0     		sub	sp, sp, #32
 647              	.LCFI17:
 648              		.cfi_def_cfa_offset 48
 649 0008 0C46     		mov	r4, r1
 650 000a 0646     		mov	r6, r0
  47:../../../src/mpu6050.c ****     {
 651              		.loc 1 47 15 discriminator 1 view .LVU123
 652 000c 0029     		cmp	r1, #0
 653 000e 45D0     		beq	.L44
  52:../../../src/mpu6050.c **** 
 654              		.loc 1 52 5 is_stmt 1 view .LVU124
  54:../../../src/mpu6050.c **** 
 655              		.loc 1 54 5 view .LVU125
 656 0010 01A8     		add	r0, sp, #4
 657              	.LVL60:
  54:../../../src/mpu6050.c **** 
 658              		.loc 1 54 5 is_stmt 0 view .LVU126
 659 0012 FFF7FEFF 		bl	mpu6050_get_fs
 660              	.LVL61:
  57:../../../src/mpu6050.c ****     data->accel.y = r_data->accel_raw.y / mpu_cfg.fs_range.accel;
 661              		.loc 1 57 5 is_stmt 1 view .LVU127
  57:../../../src/mpu6050.c ****     data->accel.y = r_data->accel_raw.y / mpu_cfg.fs_range.accel;
 662              		.loc 1 57 59 is_stmt 0 view .LVU128
 663 0016 019D     		ldr	r5, [sp, #4]	@ float
  57:../../../src/mpu6050.c ****     data->accel.y = r_data->accel_raw.y / mpu_cfg.fs_range.accel;
 664              		.loc 1 57 41 view .LVU129
 665 0018 B4F90000 		ldrsh	r0, [r4]
 666 001c FFF7FEFF 		bl	__aeabi_i2f
 667              	.LVL62:
 668 0020 2946     		mov	r1, r5
 669 0022 FFF7FEFF 		bl	__aeabi_fdiv
 670              	.LVL63:
  57:../../../src/mpu6050.c ****     data->accel.y = r_data->accel_raw.y / mpu_cfg.fs_range.accel;
 671              		.loc 1 57 19 view .LVU130
 672 0026 3060     		str	r0, [r6]	@ float
  58:../../../src/mpu6050.c ****     data->accel.z = r_data->accel_raw.z / mpu_cfg.fs_range.accel;
 673              		.loc 1 58 5 is_stmt 1 view .LVU131
  58:../../../src/mpu6050.c ****     data->accel.z = r_data->accel_raw.z / mpu_cfg.fs_range.accel;
 674              		.loc 1 58 41 is_stmt 0 view .LVU132
 675 0028 B4F90200 		ldrsh	r0, [r4, #2]
 676 002c FFF7FEFF 		bl	__aeabi_i2f
 677              	.LVL64:
ARM GAS  C:\Users\binhp\AppData\Local\Temp\ccSTGeG0.s 			page 16


 678 0030 2946     		mov	r1, r5
 679 0032 FFF7FEFF 		bl	__aeabi_fdiv
 680              	.LVL65:
  58:../../../src/mpu6050.c ****     data->accel.z = r_data->accel_raw.z / mpu_cfg.fs_range.accel;
 681              		.loc 1 58 19 view .LVU133
 682 0036 7060     		str	r0, [r6, #4]	@ float
  59:../../../src/mpu6050.c **** 
 683              		.loc 1 59 5 is_stmt 1 view .LVU134
  59:../../../src/mpu6050.c **** 
 684              		.loc 1 59 41 is_stmt 0 view .LVU135
 685 0038 B4F90400 		ldrsh	r0, [r4, #4]
 686 003c FFF7FEFF 		bl	__aeabi_i2f
 687              	.LVL66:
 688 0040 2946     		mov	r1, r5
 689 0042 FFF7FEFF 		bl	__aeabi_fdiv
 690              	.LVL67:
  59:../../../src/mpu6050.c **** 
 691              		.loc 1 59 19 view .LVU136
 692 0046 B060     		str	r0, [r6, #8]	@ float
  62:../../../src/mpu6050.c ****     data->gyro.y = r_data->gyro_raw.y / mpu_cfg.fs_range.gyro;
 693              		.loc 1 62 5 is_stmt 1 view .LVU137
  62:../../../src/mpu6050.c ****     data->gyro.y = r_data->gyro_raw.y / mpu_cfg.fs_range.gyro;
 694              		.loc 1 62 57 is_stmt 0 view .LVU138
 695 0048 029D     		ldr	r5, [sp, #8]	@ float
  62:../../../src/mpu6050.c ****     data->gyro.y = r_data->gyro_raw.y / mpu_cfg.fs_range.gyro;
 696              		.loc 1 62 39 view .LVU139
 697 004a B4F90600 		ldrsh	r0, [r4, #6]
 698 004e FFF7FEFF 		bl	__aeabi_i2f
 699              	.LVL68:
 700 0052 2946     		mov	r1, r5
 701 0054 FFF7FEFF 		bl	__aeabi_fdiv
 702              	.LVL69:
  62:../../../src/mpu6050.c ****     data->gyro.y = r_data->gyro_raw.y / mpu_cfg.fs_range.gyro;
 703              		.loc 1 62 18 view .LVU140
 704 0058 F060     		str	r0, [r6, #12]	@ float
  63:../../../src/mpu6050.c ****     data->gyro.z = r_data->gyro_raw.z / mpu_cfg.fs_range.gyro;
 705              		.loc 1 63 5 is_stmt 1 view .LVU141
  63:../../../src/mpu6050.c ****     data->gyro.z = r_data->gyro_raw.z / mpu_cfg.fs_range.gyro;
 706              		.loc 1 63 39 is_stmt 0 view .LVU142
 707 005a B4F90800 		ldrsh	r0, [r4, #8]
 708 005e FFF7FEFF 		bl	__aeabi_i2f
 709              	.LVL70:
 710 0062 2946     		mov	r1, r5
 711 0064 FFF7FEFF 		bl	__aeabi_fdiv
 712              	.LVL71:
  63:../../../src/mpu6050.c ****     data->gyro.z = r_data->gyro_raw.z / mpu_cfg.fs_range.gyro;
 713              		.loc 1 63 18 view .LVU143
 714 0068 3061     		str	r0, [r6, #16]	@ float
  64:../../../src/mpu6050.c **** 
 715              		.loc 1 64 5 is_stmt 1 view .LVU144
  64:../../../src/mpu6050.c **** 
 716              		.loc 1 64 39 is_stmt 0 view .LVU145
 717 006a B4F90A00 		ldrsh	r0, [r4, #10]
 718 006e FFF7FEFF 		bl	__aeabi_i2f
 719              	.LVL72:
 720 0072 2946     		mov	r1, r5
 721 0074 FFF7FEFF 		bl	__aeabi_fdiv
ARM GAS  C:\Users\binhp\AppData\Local\Temp\ccSTGeG0.s 			page 17


 722              	.LVL73:
  64:../../../src/mpu6050.c **** 
 723              		.loc 1 64 18 view .LVU146
 724 0078 7061     		str	r0, [r6, #20]	@ float
  67:../../../src/mpu6050.c **** 
 725              		.loc 1 67 5 is_stmt 1 view .LVU147
  67:../../../src/mpu6050.c **** 
 726              		.loc 1 67 38 is_stmt 0 view .LVU148
 727 007a B4F90C00 		ldrsh	r0, [r4, #12]
 728 007e FFF7FEFF 		bl	__aeabi_i2f
 729              	.LVL74:
 730 0082 0849     		ldr	r1, .L49
 731 0084 FFF7FEFF 		bl	__aeabi_fdiv
 732              	.LVL75:
  67:../../../src/mpu6050.c **** 
 733              		.loc 1 67 48 view .LVU149
 734 0088 0749     		ldr	r1, .L49+4
 735 008a FFF7FEFF 		bl	__aeabi_fadd
 736              	.LVL76:
  67:../../../src/mpu6050.c **** 
 737              		.loc 1 67 17 view .LVU150
 738 008e B061     		str	r0, [r6, #24]	@ float
  69:../../../src/mpu6050.c **** }
 739              		.loc 1 69 5 is_stmt 1 view .LVU151
  69:../../../src/mpu6050.c **** }
 740              		.loc 1 69 12 is_stmt 0 view .LVU152
 741 0090 0020     		movs	r0, #0
 742              	.L41:
  70:../../../src/mpu6050.c **** 
 743              		.loc 1 70 1 view .LVU153
 744 0092 08B0     		add	sp, sp, #32
 745              	.LCFI18:
 746              		.cfi_def_cfa_offset 16
 747              		@ sp needed
 748 0094 70BD     		pop	{r4, r5, r6, pc}
 749              	.LVL77:
 750              	.L43:
 751              	.LCFI19:
 752              		.cfi_def_cfa_offset 0
 753              		.cfi_restore 4
 754              		.cfi_restore 5
 755              		.cfi_restore 6
 756              		.cfi_restore 14
  49:../../../src/mpu6050.c ****     }
 757              		.loc 1 49 16 view .LVU154
 758 0096 4FF0FF30 		mov	r0, #-1
 759              	.LVL78:
  70:../../../src/mpu6050.c **** 
 760              		.loc 1 70 1 view .LVU155
 761 009a 7047     		bx	lr
 762              	.LVL79:
 763              	.L44:
 764              	.LCFI20:
 765              		.cfi_def_cfa_offset 48
 766              		.cfi_offset 4, -16
 767              		.cfi_offset 5, -12
 768              		.cfi_offset 6, -8
ARM GAS  C:\Users\binhp\AppData\Local\Temp\ccSTGeG0.s 			page 18


 769              		.cfi_offset 14, -4
  49:../../../src/mpu6050.c ****     }
 770              		.loc 1 49 16 view .LVU156
 771 009c 4FF0FF30 		mov	r0, #-1
 772              	.LVL80:
  49:../../../src/mpu6050.c ****     }
 773              		.loc 1 49 16 view .LVU157
 774 00a0 F7E7     		b	.L41
 775              	.L50:
 776 00a2 00BF     		.align	2
 777              	.L49:
 778 00a4 0000AA43 		.word	1135214592
 779 00a8 B81E1242 		.word	1108483768
 780              		.cfi_endproc
 781              	.LFE2:
 783              		.section	.text.mpu6050_get_int_sts,"ax",%progbits
 784              		.align	1
 785              		.global	mpu6050_get_int_sts
 786              		.syntax unified
 787              		.thumb
 788              		.thumb_func
 790              	mpu6050_get_int_sts:
 791              	.LFB14:
 176:../../../src/mpu6050.c **** 
 177:../../../src/mpu6050.c **** /* REG 0x3A */
 178:../../../src/mpu6050.c **** int mpu6050_get_int_sts(void)
 179:../../../src/mpu6050.c **** {
 792              		.loc 1 179 1 is_stmt 1 view -0
 793              		.cfi_startproc
 794              		@ args = 0, pretend = 0, frame = 8
 795              		@ frame_needed = 0, uses_anonymous_args = 0
 796 0000 00B5     		push	{lr}
 797              	.LCFI21:
 798              		.cfi_def_cfa_offset 4
 799              		.cfi_offset 14, -4
 800 0002 83B0     		sub	sp, sp, #12
 801              	.LCFI22:
 802              		.cfi_def_cfa_offset 16
 180:../../../src/mpu6050.c ****     uint8_t size = 1;
 803              		.loc 1 180 5 view .LVU159
 804              	.LVL81:
 181:../../../src/mpu6050.c ****     uint8_t val[size];
 805              		.loc 1 181 5 view .LVU160
 182:../../../src/mpu6050.c **** 
 183:../../../src/mpu6050.c ****     mpu6050_i2c_read_reg(REG_INT_STS, val, size);
 806              		.loc 1 183 5 view .LVU161
 807 0004 0122     		movs	r2, #1
 808 0006 01A9     		add	r1, sp, #4
 809              	.LVL82:
 810              		.loc 1 183 5 is_stmt 0 view .LVU162
 811 0008 3920     		movs	r0, #57
 812 000a FFF7FEFF 		bl	mpu6050_i2c_read_reg
 813              	.LVL83:
 184:../../../src/mpu6050.c ****     return val[1];
 814              		.loc 1 184 5 is_stmt 1 view .LVU163
 185:../../../src/mpu6050.c **** }
 815              		.loc 1 185 1 is_stmt 0 view .LVU164
ARM GAS  C:\Users\binhp\AppData\Local\Temp\ccSTGeG0.s 			page 19


 816 000e 9DF80500 		ldrb	r0, [sp, #5]	@ zero_extendqisi2
 817 0012 03B0     		add	sp, sp, #12
 818              	.LCFI23:
 819              		.cfi_def_cfa_offset 4
 820              		@ sp needed
 821 0014 5DF804FB 		ldr	pc, [sp], #4
 822              		.loc 1 185 1 view .LVU165
 823              		.cfi_endproc
 824              	.LFE14:
 826              		.section	.text.mpu6050_get_accel_raw,"ax",%progbits
 827              		.align	1
 828              		.global	mpu6050_get_accel_raw
 829              		.syntax unified
 830              		.thumb
 831              		.thumb_func
 833              	mpu6050_get_accel_raw:
 834              	.LVL84:
 835              	.LFB15:
 186:../../../src/mpu6050.c **** 
 187:../../../src/mpu6050.c **** uint8_t mpu6050_get_accel_raw(mpu_rawdata_t *r_data)
 188:../../../src/mpu6050.c **** {
 836              		.loc 1 188 1 is_stmt 1 view -0
 837              		.cfi_startproc
 838              		@ args = 0, pretend = 0, frame = 8
 839              		@ frame_needed = 0, uses_anonymous_args = 0
 840              		.loc 1 188 1 is_stmt 0 view .LVU167
 841 0000 10B5     		push	{r4, lr}
 842              	.LCFI24:
 843              		.cfi_def_cfa_offset 8
 844              		.cfi_offset 4, -8
 845              		.cfi_offset 14, -4
 846 0002 82B0     		sub	sp, sp, #8
 847              	.LCFI25:
 848              		.cfi_def_cfa_offset 16
 849 0004 0446     		mov	r4, r0
 189:../../../src/mpu6050.c ****     uint8_t size = 6;
 850              		.loc 1 189 5 is_stmt 1 view .LVU168
 851              	.LVL85:
 190:../../../src/mpu6050.c ****     uint8_t val[size];                                   // Buffer for all 6 accelerometer bytes
 852              		.loc 1 190 5 view .LVU169
 191:../../../src/mpu6050.c ****     mpu6050_i2c_read_reg(REG_ACCEL_XOUT_MSB, val, size); // Read all at once
 853              		.loc 1 191 5 view .LVU170
 854 0006 0622     		movs	r2, #6
 855 0008 6946     		mov	r1, sp
 856 000a 3B20     		movs	r0, #59
 857              	.LVL86:
 858              		.loc 1 191 5 is_stmt 0 view .LVU171
 859 000c FFF7FEFF 		bl	mpu6050_i2c_read_reg
 860              	.LVL87:
 192:../../../src/mpu6050.c **** 
 193:../../../src/mpu6050.c ****     // Convert raw data to 16-bit signed values
 194:../../../src/mpu6050.c ****     r_data->accel_raw.x = (int16_t)((val[0] << 8) | val[1]);
 861              		.loc 1 194 5 is_stmt 1 view .LVU172
 862              		.loc 1 194 41 is_stmt 0 view .LVU173
 863 0010 9DF80020 		ldrb	r2, [sp]	@ zero_extendqisi2
 864              		.loc 1 194 56 view .LVU174
 865 0014 9DF80130 		ldrb	r3, [sp, #1]	@ zero_extendqisi2
ARM GAS  C:\Users\binhp\AppData\Local\Temp\ccSTGeG0.s 			page 20


 866              		.loc 1 194 27 view .LVU175
 867 0018 43EA0223 		orr	r3, r3, r2, lsl #8
 868              		.loc 1 194 25 view .LVU176
 869 001c 2380     		strh	r3, [r4]	@ movhi
 195:../../../src/mpu6050.c ****     r_data->accel_raw.y = (int16_t)((val[2] << 8) | val[3]);
 870              		.loc 1 195 5 is_stmt 1 view .LVU177
 871              		.loc 1 195 41 is_stmt 0 view .LVU178
 872 001e 9DF80220 		ldrb	r2, [sp, #2]	@ zero_extendqisi2
 873              		.loc 1 195 56 view .LVU179
 874 0022 9DF80330 		ldrb	r3, [sp, #3]	@ zero_extendqisi2
 875              		.loc 1 195 27 view .LVU180
 876 0026 43EA0223 		orr	r3, r3, r2, lsl #8
 877              		.loc 1 195 25 view .LVU181
 878 002a 6380     		strh	r3, [r4, #2]	@ movhi
 196:../../../src/mpu6050.c ****     r_data->accel_raw.z = (int16_t)((val[4] << 8) | val[5]);
 879              		.loc 1 196 5 is_stmt 1 view .LVU182
 880              		.loc 1 196 41 is_stmt 0 view .LVU183
 881 002c 9DF80420 		ldrb	r2, [sp, #4]	@ zero_extendqisi2
 882              		.loc 1 196 56 view .LVU184
 883 0030 9DF80530 		ldrb	r3, [sp, #5]	@ zero_extendqisi2
 884              		.loc 1 196 27 view .LVU185
 885 0034 43EA0223 		orr	r3, r3, r2, lsl #8
 886              		.loc 1 196 25 view .LVU186
 887 0038 A380     		strh	r3, [r4, #4]	@ movhi
 197:../../../src/mpu6050.c **** 
 198:../../../src/mpu6050.c ****     return 0;
 888              		.loc 1 198 5 is_stmt 1 view .LVU187
 199:../../../src/mpu6050.c **** }
 889              		.loc 1 199 1 is_stmt 0 view .LVU188
 890 003a 0020     		movs	r0, #0
 891 003c 02B0     		add	sp, sp, #8
 892              	.LCFI26:
 893              		.cfi_def_cfa_offset 8
 894              	.LVL88:
 895              		.loc 1 199 1 view .LVU189
 896              		@ sp needed
 897 003e 10BD     		pop	{r4, pc}
 898              		.loc 1 199 1 view .LVU190
 899              		.cfi_endproc
 900              	.LFE15:
 902              		.section	.text.mpu6050_get_temp_raw,"ax",%progbits
 903              		.align	1
 904              		.global	mpu6050_get_temp_raw
 905              		.syntax unified
 906              		.thumb
 907              		.thumb_func
 909              	mpu6050_get_temp_raw:
 910              	.LVL89:
 911              	.LFB16:
 200:../../../src/mpu6050.c **** /* REG 0x41 to 0x42 */
 201:../../../src/mpu6050.c **** uint8_t mpu6050_get_temp_raw(mpu_rawdata_t *r_data)
 202:../../../src/mpu6050.c **** {
 912              		.loc 1 202 1 is_stmt 1 view -0
 913              		.cfi_startproc
 914              		@ args = 0, pretend = 0, frame = 8
 915              		@ frame_needed = 0, uses_anonymous_args = 0
 916              		.loc 1 202 1 is_stmt 0 view .LVU192
ARM GAS  C:\Users\binhp\AppData\Local\Temp\ccSTGeG0.s 			page 21


 917 0000 10B5     		push	{r4, lr}
 918              	.LCFI27:
 919              		.cfi_def_cfa_offset 8
 920              		.cfi_offset 4, -8
 921              		.cfi_offset 14, -4
 922 0002 82B0     		sub	sp, sp, #8
 923              	.LCFI28:
 924              		.cfi_def_cfa_offset 16
 925 0004 0446     		mov	r4, r0
 203:../../../src/mpu6050.c ****     uint8_t size = 2;
 926              		.loc 1 203 5 is_stmt 1 view .LVU193
 927              	.LVL90:
 204:../../../src/mpu6050.c ****     uint8_t val[size];
 928              		.loc 1 204 5 view .LVU194
 205:../../../src/mpu6050.c ****     mpu6050_i2c_read_reg(REG_TEMP_MSB, val, size);
 929              		.loc 1 205 5 view .LVU195
 930 0006 0222     		movs	r2, #2
 931 0008 01A9     		add	r1, sp, #4
 932              	.LVL91:
 933              		.loc 1 205 5 is_stmt 0 view .LVU196
 934 000a 4120     		movs	r0, #65
 935              	.LVL92:
 936              		.loc 1 205 5 view .LVU197
 937 000c FFF7FEFF 		bl	mpu6050_i2c_read_reg
 938              	.LVL93:
 206:../../../src/mpu6050.c ****     r_data->tempt_raw = val[0] << 8 | val[1];
 939              		.loc 1 206 5 is_stmt 1 view .LVU198
 940              		.loc 1 206 28 is_stmt 0 view .LVU199
 941 0010 9DF80420 		ldrb	r2, [sp, #4]	@ zero_extendqisi2
 942              		.loc 1 206 42 view .LVU200
 943 0014 9DF80530 		ldrb	r3, [sp, #5]	@ zero_extendqisi2
 944              		.loc 1 206 37 view .LVU201
 945 0018 43EA0223 		orr	r3, r3, r2, lsl #8
 946              		.loc 1 206 23 view .LVU202
 947 001c A381     		strh	r3, [r4, #12]	@ movhi
 207:../../../src/mpu6050.c ****     //((float)temp) / 340 + 36.53
 208:../../../src/mpu6050.c ****     return 0;
 948              		.loc 1 208 5 is_stmt 1 view .LVU203
 209:../../../src/mpu6050.c **** }
 949              		.loc 1 209 1 is_stmt 0 view .LVU204
 950 001e 0020     		movs	r0, #0
 951 0020 02B0     		add	sp, sp, #8
 952              	.LCFI29:
 953              		.cfi_def_cfa_offset 8
 954              		@ sp needed
 955 0022 10BD     		pop	{r4, pc}
 956              		.loc 1 209 1 view .LVU205
 957              		.cfi_endproc
 958              	.LFE16:
 960              		.section	.text.mpu6050_get_gyro_raw,"ax",%progbits
 961              		.align	1
 962              		.global	mpu6050_get_gyro_raw
 963              		.syntax unified
 964              		.thumb
 965              		.thumb_func
 967              	mpu6050_get_gyro_raw:
 968              	.LVL94:
ARM GAS  C:\Users\binhp\AppData\Local\Temp\ccSTGeG0.s 			page 22


 969              	.LFB17:
 210:../../../src/mpu6050.c **** 
 211:../../../src/mpu6050.c **** /* REG 0x43 to 0x48*/
 212:../../../src/mpu6050.c **** uint8_t mpu6050_get_gyro_raw(mpu_rawdata_t *r_data)
 213:../../../src/mpu6050.c **** {
 970              		.loc 1 213 1 is_stmt 1 view -0
 971              		.cfi_startproc
 972              		@ args = 0, pretend = 0, frame = 8
 973              		@ frame_needed = 0, uses_anonymous_args = 0
 974              		.loc 1 213 1 is_stmt 0 view .LVU207
 975 0000 10B5     		push	{r4, lr}
 976              	.LCFI30:
 977              		.cfi_def_cfa_offset 8
 978              		.cfi_offset 4, -8
 979              		.cfi_offset 14, -4
 980 0002 82B0     		sub	sp, sp, #8
 981              	.LCFI31:
 982              		.cfi_def_cfa_offset 16
 983 0004 0446     		mov	r4, r0
 214:../../../src/mpu6050.c ****     uint8_t size = 6;
 984              		.loc 1 214 5 is_stmt 1 view .LVU208
 985              	.LVL95:
 215:../../../src/mpu6050.c ****     uint8_t val[size];                                  // Buffer for all 6 accelerometer bytes
 986              		.loc 1 215 5 view .LVU209
 216:../../../src/mpu6050.c ****     mpu6050_i2c_read_reg(REG_GYRO_XOUT_MSB, val, size); // Read all at once
 987              		.loc 1 216 5 view .LVU210
 988 0006 0622     		movs	r2, #6
 989 0008 6946     		mov	r1, sp
 990 000a 4320     		movs	r0, #67
 991              	.LVL96:
 992              		.loc 1 216 5 is_stmt 0 view .LVU211
 993 000c FFF7FEFF 		bl	mpu6050_i2c_read_reg
 994              	.LVL97:
 217:../../../src/mpu6050.c **** 
 218:../../../src/mpu6050.c ****     // Convert raw data to 16-bit signed values
 219:../../../src/mpu6050.c ****     r_data->gyro_raw.x = (int16_t)((val[0] << 8) | val[1]);
 995              		.loc 1 219 5 is_stmt 1 view .LVU212
 996              		.loc 1 219 40 is_stmt 0 view .LVU213
 997 0010 9DF80020 		ldrb	r2, [sp]	@ zero_extendqisi2
 998              		.loc 1 219 55 view .LVU214
 999 0014 9DF80130 		ldrb	r3, [sp, #1]	@ zero_extendqisi2
 1000              		.loc 1 219 26 view .LVU215
 1001 0018 43EA0223 		orr	r3, r3, r2, lsl #8
 1002              		.loc 1 219 24 view .LVU216
 1003 001c E380     		strh	r3, [r4, #6]	@ movhi
 220:../../../src/mpu6050.c ****     r_data->gyro_raw.y = (int16_t)((val[2] << 8) | val[3]);
 1004              		.loc 1 220 5 is_stmt 1 view .LVU217
 1005              		.loc 1 220 40 is_stmt 0 view .LVU218
 1006 001e 9DF80220 		ldrb	r2, [sp, #2]	@ zero_extendqisi2
 1007              		.loc 1 220 55 view .LVU219
 1008 0022 9DF80330 		ldrb	r3, [sp, #3]	@ zero_extendqisi2
 1009              		.loc 1 220 26 view .LVU220
 1010 0026 43EA0223 		orr	r3, r3, r2, lsl #8
 1011              		.loc 1 220 24 view .LVU221
 1012 002a 2381     		strh	r3, [r4, #8]	@ movhi
 221:../../../src/mpu6050.c ****     r_data->gyro_raw.z = (int16_t)((val[4] << 8) | val[5]);
 1013              		.loc 1 221 5 is_stmt 1 view .LVU222
ARM GAS  C:\Users\binhp\AppData\Local\Temp\ccSTGeG0.s 			page 23


 1014              		.loc 1 221 40 is_stmt 0 view .LVU223
 1015 002c 9DF80420 		ldrb	r2, [sp, #4]	@ zero_extendqisi2
 1016              		.loc 1 221 55 view .LVU224
 1017 0030 9DF80530 		ldrb	r3, [sp, #5]	@ zero_extendqisi2
 1018              		.loc 1 221 26 view .LVU225
 1019 0034 43EA0223 		orr	r3, r3, r2, lsl #8
 1020              		.loc 1 221 24 view .LVU226
 1021 0038 6381     		strh	r3, [r4, #10]	@ movhi
 222:../../../src/mpu6050.c **** 
 223:../../../src/mpu6050.c ****     return 0;
 1022              		.loc 1 223 5 is_stmt 1 view .LVU227
 224:../../../src/mpu6050.c **** }
 1023              		.loc 1 224 1 is_stmt 0 view .LVU228
 1024 003a 0020     		movs	r0, #0
 1025 003c 02B0     		add	sp, sp, #8
 1026              	.LCFI32:
 1027              		.cfi_def_cfa_offset 8
 1028              	.LVL98:
 1029              		.loc 1 224 1 view .LVU229
 1030              		@ sp needed
 1031 003e 10BD     		pop	{r4, pc}
 1032              		.loc 1 224 1 view .LVU230
 1033              		.cfi_endproc
 1034              	.LFE17:
 1036              		.section	.text.mpu6050_get_raw_data,"ax",%progbits
 1037              		.align	1
 1038              		.global	mpu6050_get_raw_data
 1039              		.syntax unified
 1040              		.thumb
 1041              		.thumb_func
 1043              	mpu6050_get_raw_data:
 1044              	.LVL99:
 1045              	.LFB1:
  37:../../../src/mpu6050.c ****     mpu6050_get_accel_raw(&r_data);
 1046              		.loc 1 37 1 is_stmt 1 view -0
 1047              		.cfi_startproc
 1048              		@ args = 0, pretend = 0, frame = 8
 1049              		@ frame_needed = 0, uses_anonymous_args = 0
  37:../../../src/mpu6050.c ****     mpu6050_get_accel_raw(&r_data);
 1050              		.loc 1 37 1 is_stmt 0 view .LVU232
 1051 0000 00B5     		push	{lr}
 1052              	.LCFI33:
 1053              		.cfi_def_cfa_offset 4
 1054              		.cfi_offset 14, -4
 1055 0002 83B0     		sub	sp, sp, #12
 1056              	.LCFI34:
 1057              		.cfi_def_cfa_offset 16
 1058 0004 0190     		str	r0, [sp, #4]
  38:../../../src/mpu6050.c ****     mpu6050_get_temp_raw(&r_data);
 1059              		.loc 1 38 5 is_stmt 1 view .LVU233
 1060 0006 01A8     		add	r0, sp, #4
 1061              	.LVL100:
  38:../../../src/mpu6050.c ****     mpu6050_get_temp_raw(&r_data);
 1062              		.loc 1 38 5 is_stmt 0 view .LVU234
 1063 0008 FFF7FEFF 		bl	mpu6050_get_accel_raw
 1064              	.LVL101:
  39:../../../src/mpu6050.c ****     mpu6050_get_gyro_raw(&r_data);
ARM GAS  C:\Users\binhp\AppData\Local\Temp\ccSTGeG0.s 			page 24


 1065              		.loc 1 39 5 is_stmt 1 view .LVU235
 1066 000c 01A8     		add	r0, sp, #4
 1067 000e FFF7FEFF 		bl	mpu6050_get_temp_raw
 1068              	.LVL102:
  40:../../../src/mpu6050.c **** 
 1069              		.loc 1 40 5 view .LVU236
 1070 0012 01A8     		add	r0, sp, #4
 1071 0014 FFF7FEFF 		bl	mpu6050_get_gyro_raw
 1072              	.LVL103:
  42:../../../src/mpu6050.c **** }
 1073              		.loc 1 42 5 view .LVU237
  43:../../../src/mpu6050.c **** 
 1074              		.loc 1 43 1 is_stmt 0 view .LVU238
 1075 0018 0020     		movs	r0, #0
 1076 001a 03B0     		add	sp, sp, #12
 1077              	.LCFI35:
 1078              		.cfi_def_cfa_offset 4
 1079              		@ sp needed
 1080 001c 5DF804FB 		ldr	pc, [sp], #4
 1081              		.cfi_endproc
 1082              	.LFE1:
 1084              		.section	.text.mpu6050_get_chip_id,"ax",%progbits
 1085              		.align	1
 1086              		.global	mpu6050_get_chip_id
 1087              		.syntax unified
 1088              		.thumb
 1089              		.thumb_func
 1091              	mpu6050_get_chip_id:
 1092              	.LFB18:
 225:../../../src/mpu6050.c **** 
 226:../../../src/mpu6050.c **** /* REG 0x75 */
 227:../../../src/mpu6050.c **** int mpu6050_get_chip_id(void)
 228:../../../src/mpu6050.c **** {
 1093              		.loc 1 228 1 is_stmt 1 view -0
 1094              		.cfi_startproc
 1095              		@ args = 0, pretend = 0, frame = 8
 1096              		@ frame_needed = 0, uses_anonymous_args = 0
 1097 0000 00B5     		push	{lr}
 1098              	.LCFI36:
 1099              		.cfi_def_cfa_offset 4
 1100              		.cfi_offset 14, -4
 1101 0002 83B0     		sub	sp, sp, #12
 1102              	.LCFI37:
 1103              		.cfi_def_cfa_offset 16
 229:../../../src/mpu6050.c ****     uint8_t size = 1;
 1104              		.loc 1 229 5 view .LVU240
 1105              	.LVL104:
 230:../../../src/mpu6050.c ****     uint8_t values[size];
 1106              		.loc 1 230 5 view .LVU241
 231:../../../src/mpu6050.c **** 
 232:../../../src/mpu6050.c ****     mpu6050_i2c_read_reg(REG_WHO_AM_I, values, size);
 1107              		.loc 1 232 5 view .LVU242
 1108 0004 0122     		movs	r2, #1
 1109 0006 01A9     		add	r1, sp, #4
 1110              	.LVL105:
 1111              		.loc 1 232 5 is_stmt 0 view .LVU243
 1112 0008 7520     		movs	r0, #117
ARM GAS  C:\Users\binhp\AppData\Local\Temp\ccSTGeG0.s 			page 25


 1113 000a FFF7FEFF 		bl	mpu6050_i2c_read_reg
 1114              	.LVL106:
 233:../../../src/mpu6050.c ****     return values[0];
 1115              		.loc 1 233 5 is_stmt 1 view .LVU244
 234:../../../src/mpu6050.c **** }...
 1116              		.loc 1 234 1 is_stmt 0 view .LVU245
 1117 000e 9DF80400 		ldrb	r0, [sp, #4]	@ zero_extendqisi2
 1118 0012 03B0     		add	sp, sp, #12
 1119              	.LCFI38:
 1120              		.cfi_def_cfa_offset 4
 1121              		@ sp needed
 1122 0014 5DF804FB 		ldr	pc, [sp], #4
 1123              		.loc 1 234 1 view .LVU246
 1124              		.cfi_endproc
 1125              	.LFE18:
 1127              		.section	.bss._cfg,"aw",%nobits
 1128              		.align	2
 1131              	_cfg:
 1132 0000 00000000 		.space	28
 1132      00000000 
 1132      00000000 
 1132      00000000 
 1132      00000000 
 1133              		.section	.rodata.accel_sens,"a"
 1134              		.align	2
 1137              	accel_sens:
 1138 0000 00008046 		.word	1182793728
 1139 0004 00000046 		.word	1174405120
 1140 0008 00008045 		.word	1166016512
 1141 000c 00000045 		.word	1157627904
 1142              		.section	.rodata.gyro_sens,"a"
 1143              		.align	2
 1146              	gyro_sens:
 1147 0000 00000343 		.word	1124270080
 1148 0004 00008342 		.word	1115881472
 1149 0008 33330342 		.word	1107505971
 1150 000c 33338341 		.word	1099117363
 1151              		.text
 1152              	.Letext0:
 1153              		.file 2 "C:\\ST\\STM32CubeCLT_1.17.0\\GNU-tools-for-STM32\\bin\\../lib/gcc/arm-none-eabi/12.3.1/..
 1154              		.file 3 "C:\\ST\\STM32CubeCLT_1.17.0\\GNU-tools-for-STM32\\bin\\../lib/gcc/arm-none-eabi/12.3.1/..
 1155              		.file 4 "../../../src/../inc/mpu6050.h"
 1156              		.file 5 "../../../src/../inc/mpu6050_i2c.h"
ARM GAS  C:\Users\binhp\AppData\Local\Temp\ccSTGeG0.s 			page 26


DEFINED SYMBOLS
                            *ABS*:00000000 mpu6050.c
C:\Users\binhp\AppData\Local\Temp\ccSTGeG0.s:19     .text.mpu6050_get_sys_cfg:00000000 $t
C:\Users\binhp\AppData\Local\Temp\ccSTGeG0.s:25     .text.mpu6050_get_sys_cfg:00000000 mpu6050_get_sys_cfg
C:\Users\binhp\AppData\Local\Temp\ccSTGeG0.s:57     .text.mpu6050_get_sys_cfg:0000001c $d
C:\Users\binhp\AppData\Local\Temp\ccSTGeG0.s:1131   .bss._cfg:00000000 _cfg
C:\Users\binhp\AppData\Local\Temp\ccSTGeG0.s:63     .text.mpu6050_cfg_set_smprt_div:00000000 $t
C:\Users\binhp\AppData\Local\Temp\ccSTGeG0.s:69     .text.mpu6050_cfg_set_smprt_div:00000000 mpu6050_cfg_set_smprt_div
C:\Users\binhp\AppData\Local\Temp\ccSTGeG0.s:102    .text.mpu6050_cfg_set_smprt_div:00000018 $d
C:\Users\binhp\AppData\Local\Temp\ccSTGeG0.s:107    .text.mpu6050_cfg_set_config:00000000 $t
C:\Users\binhp\AppData\Local\Temp\ccSTGeG0.s:113    .text.mpu6050_cfg_set_config:00000000 mpu6050_cfg_set_config
C:\Users\binhp\AppData\Local\Temp\ccSTGeG0.s:146    .text.mpu6050_cfg_set_config:00000018 $d
C:\Users\binhp\AppData\Local\Temp\ccSTGeG0.s:151    .text.mpu6050_cfg_gyro:00000000 $t
C:\Users\binhp\AppData\Local\Temp\ccSTGeG0.s:157    .text.mpu6050_cfg_gyro:00000000 mpu6050_cfg_gyro
C:\Users\binhp\AppData\Local\Temp\ccSTGeG0.s:202    .text.mpu6050_cfg_gyro:0000001c $d
C:\Users\binhp\AppData\Local\Temp\ccSTGeG0.s:207    .text.mpu6050_cfg_accel:00000000 $t
C:\Users\binhp\AppData\Local\Temp\ccSTGeG0.s:213    .text.mpu6050_cfg_accel:00000000 mpu6050_cfg_accel
C:\Users\binhp\AppData\Local\Temp\ccSTGeG0.s:258    .text.mpu6050_cfg_accel:0000001c $d
C:\Users\binhp\AppData\Local\Temp\ccSTGeG0.s:263    .text.mpu6050_cfg_set_mot_thr:00000000 $t
C:\Users\binhp\AppData\Local\Temp\ccSTGeG0.s:269    .text.mpu6050_cfg_set_mot_thr:00000000 mpu6050_cfg_set_mot_thr
C:\Users\binhp\AppData\Local\Temp\ccSTGeG0.s:299    .text.mpu6050_cfg_set_mot_thr:00000014 $d
C:\Users\binhp\AppData\Local\Temp\ccSTGeG0.s:304    .text.mpu6050_cfg_en_fifo:00000000 $t
C:\Users\binhp\AppData\Local\Temp\ccSTGeG0.s:310    .text.mpu6050_cfg_en_fifo:00000000 mpu6050_cfg_en_fifo
C:\Users\binhp\AppData\Local\Temp\ccSTGeG0.s:336    .text.mpu6050_cfg_int_pin:00000000 $t
C:\Users\binhp\AppData\Local\Temp\ccSTGeG0.s:342    .text.mpu6050_cfg_int_pin:00000000 mpu6050_cfg_int_pin
C:\Users\binhp\AppData\Local\Temp\ccSTGeG0.s:395    .text.mpu6050_cfg_int_mode:00000000 $t
C:\Users\binhp\AppData\Local\Temp\ccSTGeG0.s:401    .text.mpu6050_cfg_int_mode:00000000 mpu6050_cfg_int_mode
C:\Users\binhp\AppData\Local\Temp\ccSTGeG0.s:438    .text.mpu6050_init_reg:00000000 $t
C:\Users\binhp\AppData\Local\Temp\ccSTGeG0.s:444    .text.mpu6050_init_reg:00000000 mpu6050_init_reg
C:\Users\binhp\AppData\Local\Temp\ccSTGeG0.s:505    .text.mpu6050_cfg_pwr_mng:00000000 $t
C:\Users\binhp\AppData\Local\Temp\ccSTGeG0.s:511    .text.mpu6050_cfg_pwr_mng:00000000 mpu6050_cfg_pwr_mng
C:\Users\binhp\AppData\Local\Temp\ccSTGeG0.s:537    .text.mpu6050_get_fs:00000000 $t
C:\Users\binhp\AppData\Local\Temp\ccSTGeG0.s:543    .text.mpu6050_get_fs:00000000 mpu6050_get_fs
C:\Users\binhp\AppData\Local\Temp\ccSTGeG0.s:612    .text.mpu6050_get_fs:00000038 $d
C:\Users\binhp\AppData\Local\Temp\ccSTGeG0.s:1146   .rodata.gyro_sens:00000000 gyro_sens
C:\Users\binhp\AppData\Local\Temp\ccSTGeG0.s:1137   .rodata.accel_sens:00000000 accel_sens
C:\Users\binhp\AppData\Local\Temp\ccSTGeG0.s:621    .text.mpu6050_raw_data_to_readable_data:00000000 $t
C:\Users\binhp\AppData\Local\Temp\ccSTGeG0.s:627    .text.mpu6050_raw_data_to_readable_data:00000000 mpu6050_raw_data_to_readable_data
C:\Users\binhp\AppData\Local\Temp\ccSTGeG0.s:778    .text.mpu6050_raw_data_to_readable_data:000000a4 $d
C:\Users\binhp\AppData\Local\Temp\ccSTGeG0.s:784    .text.mpu6050_get_int_sts:00000000 $t
C:\Users\binhp\AppData\Local\Temp\ccSTGeG0.s:790    .text.mpu6050_get_int_sts:00000000 mpu6050_get_int_sts
C:\Users\binhp\AppData\Local\Temp\ccSTGeG0.s:827    .text.mpu6050_get_accel_raw:00000000 $t
C:\Users\binhp\AppData\Local\Temp\ccSTGeG0.s:833    .text.mpu6050_get_accel_raw:00000000 mpu6050_get_accel_raw
C:\Users\binhp\AppData\Local\Temp\ccSTGeG0.s:903    .text.mpu6050_get_temp_raw:00000000 $t
C:\Users\binhp\AppData\Local\Temp\ccSTGeG0.s:909    .text.mpu6050_get_temp_raw:00000000 mpu6050_get_temp_raw
C:\Users\binhp\AppData\Local\Temp\ccSTGeG0.s:961    .text.mpu6050_get_gyro_raw:00000000 $t
C:\Users\binhp\AppData\Local\Temp\ccSTGeG0.s:967    .text.mpu6050_get_gyro_raw:00000000 mpu6050_get_gyro_raw
C:\Users\binhp\AppData\Local\Temp\ccSTGeG0.s:1037   .text.mpu6050_get_raw_data:00000000 $t
C:\Users\binhp\AppData\Local\Temp\ccSTGeG0.s:1043   .text.mpu6050_get_raw_data:00000000 mpu6050_get_raw_data
C:\Users\binhp\AppData\Local\Temp\ccSTGeG0.s:1085   .text.mpu6050_get_chip_id:00000000 $t
C:\Users\binhp\AppData\Local\Temp\ccSTGeG0.s:1091   .text.mpu6050_get_chip_id:00000000 mpu6050_get_chip_id
C:\Users\binhp\AppData\Local\Temp\ccSTGeG0.s:1128   .bss._cfg:00000000 $d
C:\Users\binhp\AppData\Local\Temp\ccSTGeG0.s:1134   .rodata.accel_sens:00000000 $d
C:\Users\binhp\AppData\Local\Temp\ccSTGeG0.s:1143   .rodata.gyro_sens:00000000 $d

UNDEFINED SYMBOLS
__aeabi_ui2f
ARM GAS  C:\Users\binhp\AppData\Local\Temp\ccSTGeG0.s 			page 27


mpu6050_i2c_write_reg
mpu6050_i2c_read_reg
__aeabi_i2f
__aeabi_fdiv
__aeabi_fadd
