ARM GAS  C:\Users\binhp\AppData\Local\Temp\ccmgFTj5.s 			page 1


   1              		.cpu cortex-m3
   2              		.arch armv7-m
   3              		.fpu softvfp
   4              		.eabi_attribute 20, 1
   5              		.eabi_attribute 21, 1
   6              		.eabi_attribute 23, 3
   7              		.eabi_attribute 24, 1
   8              		.eabi_attribute 25, 1
   9              		.eabi_attribute 26, 1
  10              		.eabi_attribute 30, 1
  11              		.eabi_attribute 34, 1
  12              		.eabi_attribute 18, 4
  13              		.file	"main.c"
  14              		.text
  15              	.Ltext0:
  16              		.cfi_sections	.debug_frame
  17              		.file 1 "src/main.c"
  18              		.section	.text.mpu6050_com_init,"ax",%progbits
  19              		.align	1
  20              		.global	mpu6050_com_init
  21              		.syntax unified
  22              		.thumb
  23              		.thumb_func
  25              	mpu6050_com_init:
  26              	.LFB65:
   1:src/main.c    **** 
   2:src/main.c    **** #include "main.h"
   3:src/main.c    **** #include "hal_i2c.h"
   4:src/main.c    **** #include "hal_uart.h"
   5:src/main.c    **** #include "hal_gpio.h"
   6:src/main.c    **** #include "board_config.h"
   7:src/main.c    **** #include "syscfg.h"
   8:src/main.c    **** #include "mpu6050.h"
   9:src/main.c    **** 
  10:src/main.c    **** /* Init MPU6050 for STM32 mcu related */
  11:src/main.c    **** void mpu6050_com_init(void)
  12:src/main.c    **** {
  27              		.loc 1 12 1 view -0
  28              		.cfi_startproc
  29              		@ args = 0, pretend = 0, frame = 8
  30              		@ frame_needed = 0, uses_anonymous_args = 0
  31 0000 00B5     		push	{lr}
  32              	.LCFI0:
  33              		.cfi_def_cfa_offset 4
  34              		.cfi_offset 14, -4
  35 0002 83B0     		sub	sp, sp, #12
  36              	.LCFI1:
  37              		.cfi_def_cfa_offset 16
  13:src/main.c    ****   mpu6050_i2c_ops_t ops = {
  38              		.loc 1 13 3 view .LVU1
  39              		.loc 1 13 21 is_stmt 0 view .LVU2
  40 0004 054A     		ldr	r2, .L3
  41 0006 6B46     		mov	r3, sp
  42 0008 92E80300 		ldm	r2, {r0, r1}
  43 000c 83E80300 		stm	r3, {r0, r1}
  14:src/main.c    ****       .i2c_write = stm32_i2c_write_reg,
  15:src/main.c    ****       .i2c_read = stm32_i2c_read_reg};
ARM GAS  C:\Users\binhp\AppData\Local\Temp\ccmgFTj5.s 			page 2


  16:src/main.c    ****   mpu6050_set_i2c_spec(&ops);
  44              		.loc 1 16 3 is_stmt 1 view .LVU3
  45 0010 1846     		mov	r0, r3
  46 0012 FFF7FEFF 		bl	mpu6050_set_i2c_spec
  47              	.LVL0:
  17:src/main.c    **** }
  48              		.loc 1 17 1 is_stmt 0 view .LVU4
  49 0016 03B0     		add	sp, sp, #12
  50              	.LCFI2:
  51              		.cfi_def_cfa_offset 4
  52              		@ sp needed
  53 0018 5DF804FB 		ldr	pc, [sp], #4
  54              	.L4:
  55              		.align	2
  56              	.L3:
  57 001c 00000000 		.word	.LANCHOR0
  58              		.cfi_endproc
  59              	.LFE65:
  61              		.section	.text.peripheral_init,"ax",%progbits
  62              		.align	1
  63              		.syntax unified
  64              		.thumb
  65              		.thumb_func
  67              	peripheral_init:
  68              	.LFB66:
  18:src/main.c    **** 
  19:src/main.c    **** static void peripheral_init(void)
  20:src/main.c    **** {
  69              		.loc 1 20 1 is_stmt 1 view -0
  70              		.cfi_startproc
  71              		@ args = 0, pretend = 0, frame = 0
  72              		@ frame_needed = 0, uses_anonymous_args = 0
  73 0000 08B5     		push	{r3, lr}
  74              	.LCFI3:
  75              		.cfi_def_cfa_offset 8
  76              		.cfi_offset 3, -8
  77              		.cfi_offset 14, -4
  21:src/main.c    ****   /* STM32 related */
  22:src/main.c    ****   HAL_Init();
  78              		.loc 1 22 3 view .LVU6
  79 0002 FFF7FEFF 		bl	HAL_Init
  80              	.LVL1:
  23:src/main.c    ****   SystemClock_Config();
  81              		.loc 1 23 3 view .LVU7
  82 0006 FFF7FEFF 		bl	SystemClock_Config
  83              	.LVL2:
  24:src/main.c    ****   MX_GPIO_Init();
  84              		.loc 1 24 3 view .LVU8
  85 000a FFF7FEFF 		bl	MX_GPIO_Init
  86              	.LVL3:
  25:src/main.c    ****   MX_I2C1_Init();
  87              		.loc 1 25 3 view .LVU9
  88 000e FFF7FEFF 		bl	MX_I2C1_Init
  89              	.LVL4:
  26:src/main.c    ****   MX_USART1_UART_Init();
  90              		.loc 1 26 3 view .LVU10
  91 0012 FFF7FEFF 		bl	MX_USART1_UART_Init
ARM GAS  C:\Users\binhp\AppData\Local\Temp\ccmgFTj5.s 			page 3


  92              	.LVL5:
  27:src/main.c    **** 
  28:src/main.c    ****   /* Application related*/
  29:src/main.c    ****   mpu6050_com_init();
  93              		.loc 1 29 3 view .LVU11
  94 0016 FFF7FEFF 		bl	mpu6050_com_init
  95              	.LVL6:
  30:src/main.c    ****   mpu6050_init_reg();
  96              		.loc 1 30 3 view .LVU12
  97 001a FFF7FEFF 		bl	mpu6050_init_reg
  98              	.LVL7:
  31:src/main.c    ****   mpu6050_cfg_pwr_mng(0x00);
  99              		.loc 1 31 3 view .LVU13
 100 001e 0020     		movs	r0, #0
 101 0020 FFF7FEFF 		bl	mpu6050_cfg_pwr_mng
 102              	.LVL8:
  32:src/main.c    **** }
 103              		.loc 1 32 1 is_stmt 0 view .LVU14
 104 0024 08BD     		pop	{r3, pc}
 105              		.cfi_endproc
 106              	.LFE66:
 108              		.global	__aeabi_fmul
 109              		.global	__aeabi_f2uiz
 110              		.section	.text.main,"ax",%progbits
 111              		.align	1
 112              		.global	main
 113              		.syntax unified
 114              		.thumb
 115              		.thumb_func
 117              	main:
 118              	.LFB67:
  33:src/main.c    **** 
  34:src/main.c    **** int main(void)
  35:src/main.c    **** {
 119              		.loc 1 35 1 is_stmt 1 view -0
 120              		.cfi_startproc
 121              		@ Volatile: function does not return.
 122              		@ args = 0, pretend = 0, frame = 56
 123              		@ frame_needed = 0, uses_anonymous_args = 0
 124 0000 00B5     		push	{lr}
 125              	.LCFI4:
 126              		.cfi_def_cfa_offset 4
 127              		.cfi_offset 14, -4
 128 0002 8FB0     		sub	sp, sp, #60
 129              	.LCFI5:
 130              		.cfi_def_cfa_offset 64
  36:src/main.c    ****   peripheral_init();
 131              		.loc 1 36 3 view .LVU16
 132 0004 FFF7FEFF 		bl	peripheral_init
 133              	.LVL9:
 134              	.L8:
  37:src/main.c    **** 
  38:src/main.c    ****   int err;
 135              		.loc 1 38 3 view .LVU17
  39:src/main.c    ****   mpu_cfg_t mpu_cfg;
 136              		.loc 1 39 3 view .LVU18
  40:src/main.c    ****   mpu_rawdata_t r_data;
ARM GAS  C:\Users\binhp\AppData\Local\Temp\ccmgFTj5.s 			page 4


 137              		.loc 1 40 3 view .LVU19
  41:src/main.c    ****   mpu_data_t data;
 138              		.loc 1 41 3 view .LVU20
  42:src/main.c    **** 
  43:src/main.c    ****   uint8_t uart_data[7];
 139              		.loc 1 43 3 view .LVU21
  44:src/main.c    ****   while (1)
 140              		.loc 1 44 3 view .LVU22
  45:src/main.c    ****   {
  46:src/main.c    **** 
  47:src/main.c    ****     HAL_GPIO_WritePin(BUILTIN_LED_PORT, BUILTIN_LED_PIN, GPIO_PIN_RESET);
 141              		.loc 1 47 5 view .LVU23
 142 0008 2B4C     		ldr	r4, .L10
 143 000a 0022     		movs	r2, #0
 144 000c 4FF40051 		mov	r1, #8192
 145 0010 2046     		mov	r0, r4
 146 0012 FFF7FEFF 		bl	HAL_GPIO_WritePin
 147              	.LVL10:
  48:src/main.c    ****     mpu6050_get_accel_raw(&r_data);
 148              		.loc 1 48 5 view .LVU24
 149 0016 0AA8     		add	r0, sp, #40
 150 0018 FFF7FEFF 		bl	mpu6050_get_accel_raw
 151              	.LVL11:
  49:src/main.c    ****     mpu6050_get_gyro_raw(&r_data);
 152              		.loc 1 49 5 view .LVU25
 153 001c 0AA8     		add	r0, sp, #40
 154 001e FFF7FEFF 		bl	mpu6050_get_gyro_raw
 155              	.LVL12:
  50:src/main.c    ****     mpu6050_get_temp_raw(&r_data);
 156              		.loc 1 50 5 view .LVU26
 157 0022 0AA8     		add	r0, sp, #40
 158 0024 FFF7FEFF 		bl	mpu6050_get_temp_raw
 159              	.LVL13:
  51:src/main.c    ****     mpu6050_raw_data_to_readable_data(&data, &r_data);
 160              		.loc 1 51 5 view .LVU27
 161 0028 0AA9     		add	r1, sp, #40
 162 002a 03A8     		add	r0, sp, #12
 163 002c FFF7FEFF 		bl	mpu6050_raw_data_to_readable_data
 164              	.LVL14:
  52:src/main.c    **** 
  53:src/main.c    ****     uart_data[0] = (uint8_t)(data.accel.x * 100);
 165              		.loc 1 53 5 view .LVU28
 166              		.loc 1 53 43 is_stmt 0 view .LVU29
 167 0030 2249     		ldr	r1, .L10+4
 168 0032 0398     		ldr	r0, [sp, #12]	@ float
 169 0034 FFF7FEFF 		bl	__aeabi_fmul
 170              	.LVL15:
 171              		.loc 1 53 20 view .LVU30
 172 0038 FFF7FEFF 		bl	__aeabi_f2uiz
 173              	.LVL16:
 174              		.loc 1 53 18 view .LVU31
 175 003c 8DF80400 		strb	r0, [sp, #4]
  54:src/main.c    ****     uart_data[1] = (uint8_t)(data.accel.y * 100);
 176              		.loc 1 54 5 is_stmt 1 view .LVU32
 177              		.loc 1 54 43 is_stmt 0 view .LVU33
 178 0040 1E49     		ldr	r1, .L10+4
 179 0042 0498     		ldr	r0, [sp, #16]	@ float
ARM GAS  C:\Users\binhp\AppData\Local\Temp\ccmgFTj5.s 			page 5


 180 0044 FFF7FEFF 		bl	__aeabi_fmul
 181              	.LVL17:
 182              		.loc 1 54 20 view .LVU34
 183 0048 FFF7FEFF 		bl	__aeabi_f2uiz
 184              	.LVL18:
 185              		.loc 1 54 18 view .LVU35
 186 004c 8DF80500 		strb	r0, [sp, #5]
  55:src/main.c    ****     uart_data[2] = (uint8_t)(data.accel.z * 100);
 187              		.loc 1 55 5 is_stmt 1 view .LVU36
 188              		.loc 1 55 43 is_stmt 0 view .LVU37
 189 0050 1A49     		ldr	r1, .L10+4
 190 0052 0598     		ldr	r0, [sp, #20]	@ float
 191 0054 FFF7FEFF 		bl	__aeabi_fmul
 192              	.LVL19:
 193              		.loc 1 55 20 view .LVU38
 194 0058 FFF7FEFF 		bl	__aeabi_f2uiz
 195              	.LVL20:
 196              		.loc 1 55 18 view .LVU39
 197 005c 8DF80600 		strb	r0, [sp, #6]
  56:src/main.c    ****     uart_data[3] = (uint8_t)(data.gyro.x * 100);
 198              		.loc 1 56 5 is_stmt 1 view .LVU40
 199              		.loc 1 56 42 is_stmt 0 view .LVU41
 200 0060 1649     		ldr	r1, .L10+4
 201 0062 0698     		ldr	r0, [sp, #24]	@ float
 202 0064 FFF7FEFF 		bl	__aeabi_fmul
 203              	.LVL21:
 204              		.loc 1 56 20 view .LVU42
 205 0068 FFF7FEFF 		bl	__aeabi_f2uiz
 206              	.LVL22:
 207              		.loc 1 56 18 view .LVU43
 208 006c 8DF80700 		strb	r0, [sp, #7]
  57:src/main.c    ****     uart_data[4] = (uint8_t)(data.gyro.y * 100);
 209              		.loc 1 57 5 is_stmt 1 view .LVU44
 210              		.loc 1 57 42 is_stmt 0 view .LVU45
 211 0070 1249     		ldr	r1, .L10+4
 212 0072 0798     		ldr	r0, [sp, #28]	@ float
 213 0074 FFF7FEFF 		bl	__aeabi_fmul
 214              	.LVL23:
 215              		.loc 1 57 20 view .LVU46
 216 0078 FFF7FEFF 		bl	__aeabi_f2uiz
 217              	.LVL24:
 218              		.loc 1 57 18 view .LVU47
 219 007c 8DF80800 		strb	r0, [sp, #8]
  58:src/main.c    ****     uart_data[5] = (uint8_t)(data.gyro.z * 100);
 220              		.loc 1 58 5 is_stmt 1 view .LVU48
 221              		.loc 1 58 42 is_stmt 0 view .LVU49
 222 0080 0E49     		ldr	r1, .L10+4
 223 0082 0898     		ldr	r0, [sp, #32]	@ float
 224 0084 FFF7FEFF 		bl	__aeabi_fmul
 225              	.LVL25:
 226              		.loc 1 58 20 view .LVU50
 227 0088 FFF7FEFF 		bl	__aeabi_f2uiz
 228              	.LVL26:
 229              		.loc 1 58 18 view .LVU51
 230 008c 8DF80900 		strb	r0, [sp, #9]
  59:src/main.c    ****     uart_data[6] = (uint8_t)(data.tempt);
 231              		.loc 1 59 5 is_stmt 1 view .LVU52
ARM GAS  C:\Users\binhp\AppData\Local\Temp\ccmgFTj5.s 			page 6


 232              		.loc 1 59 20 is_stmt 0 view .LVU53
 233 0090 0998     		ldr	r0, [sp, #36]	@ float
 234 0092 FFF7FEFF 		bl	__aeabi_f2uiz
 235              	.LVL27:
 236              		.loc 1 59 18 view .LVU54
 237 0096 8DF80A00 		strb	r0, [sp, #10]
  60:src/main.c    **** 
  61:src/main.c    ****     uart_send(uart_data, 7);
 238              		.loc 1 61 5 is_stmt 1 view .LVU55
 239 009a 0721     		movs	r1, #7
 240 009c 01A8     		add	r0, sp, #4
 241 009e FFF7FEFF 		bl	uart_send
 242              	.LVL28:
  62:src/main.c    ****     HAL_GPIO_WritePin(BUILTIN_LED_PORT, BUILTIN_LED_PIN, GPIO_PIN_SET);
 243              		.loc 1 62 5 view .LVU56
 244 00a2 0122     		movs	r2, #1
 245 00a4 4FF40051 		mov	r1, #8192
 246 00a8 2046     		mov	r0, r4
 247 00aa FFF7FEFF 		bl	HAL_GPIO_WritePin
 248              	.LVL29:
  63:src/main.c    ****     HAL_Delay(1000); // sampling rate is 94Hz, so make it > 10ms
 249              		.loc 1 63 5 discriminator 1 view .LVU57
 250 00ae 4FF47A70 		mov	r0, #1000
 251 00b2 FFF7FEFF 		bl	HAL_Delay
 252              	.LVL30:
  44:src/main.c    ****   {
 253              		.loc 1 44 9 view .LVU58
 254 00b6 A7E7     		b	.L8
 255              	.L11:
 256              		.align	2
 257              	.L10:
 258 00b8 00100140 		.word	1073811456
 259 00bc 0000C842 		.word	1120403456
 260              		.cfi_endproc
 261              	.LFE67:
 263              		.section	.text.Error_Handler,"ax",%progbits
 264              		.align	1
 265              		.global	Error_Handler
 266              		.syntax unified
 267              		.thumb
 268              		.thumb_func
 270              	Error_Handler:
 271              	.LFB68:
  64:src/main.c    ****   }
  65:src/main.c    **** }
  66:src/main.c    **** 
  67:src/main.c    **** void Error_Handler(void)
  68:src/main.c    **** {
 272              		.loc 1 68 1 view -0
 273              		.cfi_startproc
 274              		@ Volatile: function does not return.
 275              		@ args = 0, pretend = 0, frame = 0
 276              		@ frame_needed = 0, uses_anonymous_args = 0
 277              		@ link register save eliminated.
  69:src/main.c    ****   __disable_irq();
 278              		.loc 1 69 3 view .LVU60
 279              	.LBB4:
ARM GAS  C:\Users\binhp\AppData\Local\Temp\ccmgFTj5.s 			page 7


 280              	.LBI4:
 281              		.file 2 "Drivers/CMSIS/include/cmsis_gcc.h"
   1:Drivers/CMSIS/include/cmsis_gcc.h **** /**************************************************************************//**
   2:Drivers/CMSIS/include/cmsis_gcc.h ****  * @file     cmsis_gcc.h
   3:Drivers/CMSIS/include/cmsis_gcc.h ****  * @brief    CMSIS compiler GCC header file
   4:Drivers/CMSIS/include/cmsis_gcc.h ****  * @version  V5.0.4
   5:Drivers/CMSIS/include/cmsis_gcc.h ****  * @date     09. April 2018
   6:Drivers/CMSIS/include/cmsis_gcc.h ****  ******************************************************************************/
   7:Drivers/CMSIS/include/cmsis_gcc.h **** /*
   8:Drivers/CMSIS/include/cmsis_gcc.h ****  * Copyright (c) 2009-2018 Arm Limited. All rights reserved.
   9:Drivers/CMSIS/include/cmsis_gcc.h ****  *
  10:Drivers/CMSIS/include/cmsis_gcc.h ****  * SPDX-License-Identifier: Apache-2.0
  11:Drivers/CMSIS/include/cmsis_gcc.h ****  *
  12:Drivers/CMSIS/include/cmsis_gcc.h ****  * Licensed under the Apache License, Version 2.0 (the License); you may
  13:Drivers/CMSIS/include/cmsis_gcc.h ****  * not use this file except in compliance with the License.
  14:Drivers/CMSIS/include/cmsis_gcc.h ****  * You may obtain a copy of the License at
  15:Drivers/CMSIS/include/cmsis_gcc.h ****  *
  16:Drivers/CMSIS/include/cmsis_gcc.h ****  * www.apache.org/licenses/LICENSE-2.0
  17:Drivers/CMSIS/include/cmsis_gcc.h ****  *
  18:Drivers/CMSIS/include/cmsis_gcc.h ****  * Unless required by applicable law or agreed to in writing, software
  19:Drivers/CMSIS/include/cmsis_gcc.h ****  * distributed under the License is distributed on an AS IS BASIS, WITHOUT
  20:Drivers/CMSIS/include/cmsis_gcc.h ****  * WARRANTIES OR CONDITIONS OF ANY KIND, either express or implied.
  21:Drivers/CMSIS/include/cmsis_gcc.h ****  * See the License for the specific language governing permissions and
  22:Drivers/CMSIS/include/cmsis_gcc.h ****  * limitations under the License.
  23:Drivers/CMSIS/include/cmsis_gcc.h ****  */
  24:Drivers/CMSIS/include/cmsis_gcc.h **** 
  25:Drivers/CMSIS/include/cmsis_gcc.h **** #ifndef __CMSIS_GCC_H
  26:Drivers/CMSIS/include/cmsis_gcc.h **** #define __CMSIS_GCC_H
  27:Drivers/CMSIS/include/cmsis_gcc.h **** 
  28:Drivers/CMSIS/include/cmsis_gcc.h **** /* ignore some GCC warnings */
  29:Drivers/CMSIS/include/cmsis_gcc.h **** #pragma GCC diagnostic push
  30:Drivers/CMSIS/include/cmsis_gcc.h **** #pragma GCC diagnostic ignored "-Wsign-conversion"
  31:Drivers/CMSIS/include/cmsis_gcc.h **** #pragma GCC diagnostic ignored "-Wconversion"
  32:Drivers/CMSIS/include/cmsis_gcc.h **** #pragma GCC diagnostic ignored "-Wunused-parameter"
  33:Drivers/CMSIS/include/cmsis_gcc.h **** 
  34:Drivers/CMSIS/include/cmsis_gcc.h **** /* Fallback for __has_builtin */
  35:Drivers/CMSIS/include/cmsis_gcc.h **** #ifndef __has_builtin
  36:Drivers/CMSIS/include/cmsis_gcc.h ****   #define __has_builtin(x) (0)
  37:Drivers/CMSIS/include/cmsis_gcc.h **** #endif
  38:Drivers/CMSIS/include/cmsis_gcc.h **** 
  39:Drivers/CMSIS/include/cmsis_gcc.h **** /* CMSIS compiler specific defines */
  40:Drivers/CMSIS/include/cmsis_gcc.h **** #ifndef   __ASM
  41:Drivers/CMSIS/include/cmsis_gcc.h ****   #define __ASM                                  __asm
  42:Drivers/CMSIS/include/cmsis_gcc.h **** #endif
  43:Drivers/CMSIS/include/cmsis_gcc.h **** #ifndef   __INLINE
  44:Drivers/CMSIS/include/cmsis_gcc.h ****   #define __INLINE                               inline
  45:Drivers/CMSIS/include/cmsis_gcc.h **** #endif
  46:Drivers/CMSIS/include/cmsis_gcc.h **** #ifndef   __STATIC_INLINE
  47:Drivers/CMSIS/include/cmsis_gcc.h ****   #define __STATIC_INLINE                        static inline
  48:Drivers/CMSIS/include/cmsis_gcc.h **** #endif
  49:Drivers/CMSIS/include/cmsis_gcc.h **** #ifndef   __STATIC_FORCEINLINE                 
  50:Drivers/CMSIS/include/cmsis_gcc.h ****   #define __STATIC_FORCEINLINE                   __attribute__((always_inline)) static inline
  51:Drivers/CMSIS/include/cmsis_gcc.h **** #endif                                           
  52:Drivers/CMSIS/include/cmsis_gcc.h **** #ifndef   __NO_RETURN
  53:Drivers/CMSIS/include/cmsis_gcc.h ****   #define __NO_RETURN                            __attribute__((__noreturn__))
  54:Drivers/CMSIS/include/cmsis_gcc.h **** #endif
  55:Drivers/CMSIS/include/cmsis_gcc.h **** #ifndef   __USED
ARM GAS  C:\Users\binhp\AppData\Local\Temp\ccmgFTj5.s 			page 8


  56:Drivers/CMSIS/include/cmsis_gcc.h ****   #define __USED                                 __attribute__((used))
  57:Drivers/CMSIS/include/cmsis_gcc.h **** #endif
  58:Drivers/CMSIS/include/cmsis_gcc.h **** #ifndef   __WEAK
  59:Drivers/CMSIS/include/cmsis_gcc.h ****   #define __WEAK                                 __attribute__((weak))
  60:Drivers/CMSIS/include/cmsis_gcc.h **** #endif
  61:Drivers/CMSIS/include/cmsis_gcc.h **** #ifndef   __PACKED
  62:Drivers/CMSIS/include/cmsis_gcc.h ****   #define __PACKED                               __attribute__((packed, aligned(1)))
  63:Drivers/CMSIS/include/cmsis_gcc.h **** #endif
  64:Drivers/CMSIS/include/cmsis_gcc.h **** #ifndef   __PACKED_STRUCT
  65:Drivers/CMSIS/include/cmsis_gcc.h ****   #define __PACKED_STRUCT                        struct __attribute__((packed, aligned(1)))
  66:Drivers/CMSIS/include/cmsis_gcc.h **** #endif
  67:Drivers/CMSIS/include/cmsis_gcc.h **** #ifndef   __PACKED_UNION
  68:Drivers/CMSIS/include/cmsis_gcc.h ****   #define __PACKED_UNION                         union __attribute__((packed, aligned(1)))
  69:Drivers/CMSIS/include/cmsis_gcc.h **** #endif
  70:Drivers/CMSIS/include/cmsis_gcc.h **** #ifndef   __UNALIGNED_UINT32        /* deprecated */
  71:Drivers/CMSIS/include/cmsis_gcc.h ****   #pragma GCC diagnostic push
  72:Drivers/CMSIS/include/cmsis_gcc.h ****   #pragma GCC diagnostic ignored "-Wpacked"
  73:Drivers/CMSIS/include/cmsis_gcc.h ****   #pragma GCC diagnostic ignored "-Wattributes"
  74:Drivers/CMSIS/include/cmsis_gcc.h ****   struct __attribute__((packed)) T_UINT32 { uint32_t v; };
  75:Drivers/CMSIS/include/cmsis_gcc.h ****   #pragma GCC diagnostic pop
  76:Drivers/CMSIS/include/cmsis_gcc.h ****   #define __UNALIGNED_UINT32(x)                  (((struct T_UINT32 *)(x))->v)
  77:Drivers/CMSIS/include/cmsis_gcc.h **** #endif
  78:Drivers/CMSIS/include/cmsis_gcc.h **** #ifndef   __UNALIGNED_UINT16_WRITE
  79:Drivers/CMSIS/include/cmsis_gcc.h ****   #pragma GCC diagnostic push
  80:Drivers/CMSIS/include/cmsis_gcc.h ****   #pragma GCC diagnostic ignored "-Wpacked"
  81:Drivers/CMSIS/include/cmsis_gcc.h ****   #pragma GCC diagnostic ignored "-Wattributes"
  82:Drivers/CMSIS/include/cmsis_gcc.h ****   __PACKED_STRUCT T_UINT16_WRITE { uint16_t v; };
  83:Drivers/CMSIS/include/cmsis_gcc.h ****   #pragma GCC diagnostic pop
  84:Drivers/CMSIS/include/cmsis_gcc.h ****   #define __UNALIGNED_UINT16_WRITE(addr, val)    (void)((((struct T_UINT16_WRITE *)(void *)(addr))-
  85:Drivers/CMSIS/include/cmsis_gcc.h **** #endif
  86:Drivers/CMSIS/include/cmsis_gcc.h **** #ifndef   __UNALIGNED_UINT16_READ
  87:Drivers/CMSIS/include/cmsis_gcc.h ****   #pragma GCC diagnostic push
  88:Drivers/CMSIS/include/cmsis_gcc.h ****   #pragma GCC diagnostic ignored "-Wpacked"
  89:Drivers/CMSIS/include/cmsis_gcc.h ****   #pragma GCC diagnostic ignored "-Wattributes"
  90:Drivers/CMSIS/include/cmsis_gcc.h ****   __PACKED_STRUCT T_UINT16_READ { uint16_t v; };
  91:Drivers/CMSIS/include/cmsis_gcc.h ****   #pragma GCC diagnostic pop
  92:Drivers/CMSIS/include/cmsis_gcc.h ****   #define __UNALIGNED_UINT16_READ(addr)          (((const struct T_UINT16_READ *)(const void *)(add
  93:Drivers/CMSIS/include/cmsis_gcc.h **** #endif
  94:Drivers/CMSIS/include/cmsis_gcc.h **** #ifndef   __UNALIGNED_UINT32_WRITE
  95:Drivers/CMSIS/include/cmsis_gcc.h ****   #pragma GCC diagnostic push
  96:Drivers/CMSIS/include/cmsis_gcc.h ****   #pragma GCC diagnostic ignored "-Wpacked"
  97:Drivers/CMSIS/include/cmsis_gcc.h ****   #pragma GCC diagnostic ignored "-Wattributes"
  98:Drivers/CMSIS/include/cmsis_gcc.h ****   __PACKED_STRUCT T_UINT32_WRITE { uint32_t v; };
  99:Drivers/CMSIS/include/cmsis_gcc.h ****   #pragma GCC diagnostic pop
 100:Drivers/CMSIS/include/cmsis_gcc.h ****   #define __UNALIGNED_UINT32_WRITE(addr, val)    (void)((((struct T_UINT32_WRITE *)(void *)(addr))-
 101:Drivers/CMSIS/include/cmsis_gcc.h **** #endif
 102:Drivers/CMSIS/include/cmsis_gcc.h **** #ifndef   __UNALIGNED_UINT32_READ
 103:Drivers/CMSIS/include/cmsis_gcc.h ****   #pragma GCC diagnostic push
 104:Drivers/CMSIS/include/cmsis_gcc.h ****   #pragma GCC diagnostic ignored "-Wpacked"
 105:Drivers/CMSIS/include/cmsis_gcc.h ****   #pragma GCC diagnostic ignored "-Wattributes"
 106:Drivers/CMSIS/include/cmsis_gcc.h ****   __PACKED_STRUCT T_UINT32_READ { uint32_t v; };
 107:Drivers/CMSIS/include/cmsis_gcc.h ****   #pragma GCC diagnostic pop
 108:Drivers/CMSIS/include/cmsis_gcc.h ****   #define __UNALIGNED_UINT32_READ(addr)          (((const struct T_UINT32_READ *)(const void *)(add
 109:Drivers/CMSIS/include/cmsis_gcc.h **** #endif
 110:Drivers/CMSIS/include/cmsis_gcc.h **** #ifndef   __ALIGNED
 111:Drivers/CMSIS/include/cmsis_gcc.h ****   #define __ALIGNED(x)                           __attribute__((aligned(x)))
 112:Drivers/CMSIS/include/cmsis_gcc.h **** #endif
ARM GAS  C:\Users\binhp\AppData\Local\Temp\ccmgFTj5.s 			page 9


 113:Drivers/CMSIS/include/cmsis_gcc.h **** #ifndef   __RESTRICT
 114:Drivers/CMSIS/include/cmsis_gcc.h ****   #define __RESTRICT                             __restrict
 115:Drivers/CMSIS/include/cmsis_gcc.h **** #endif
 116:Drivers/CMSIS/include/cmsis_gcc.h **** 
 117:Drivers/CMSIS/include/cmsis_gcc.h **** 
 118:Drivers/CMSIS/include/cmsis_gcc.h **** /* ###########################  Core Function Access  ########################### */
 119:Drivers/CMSIS/include/cmsis_gcc.h **** /** \ingroup  CMSIS_Core_FunctionInterface
 120:Drivers/CMSIS/include/cmsis_gcc.h ****     \defgroup CMSIS_Core_RegAccFunctions CMSIS Core Register Access Functions
 121:Drivers/CMSIS/include/cmsis_gcc.h ****   @{
 122:Drivers/CMSIS/include/cmsis_gcc.h ****  */
 123:Drivers/CMSIS/include/cmsis_gcc.h **** 
 124:Drivers/CMSIS/include/cmsis_gcc.h **** /**
 125:Drivers/CMSIS/include/cmsis_gcc.h ****   \brief   Enable IRQ Interrupts
 126:Drivers/CMSIS/include/cmsis_gcc.h ****   \details Enables IRQ interrupts by clearing the I-bit in the CPSR.
 127:Drivers/CMSIS/include/cmsis_gcc.h ****            Can only be executed in Privileged modes.
 128:Drivers/CMSIS/include/cmsis_gcc.h ****  */
 129:Drivers/CMSIS/include/cmsis_gcc.h **** __STATIC_FORCEINLINE void __enable_irq(void)
 130:Drivers/CMSIS/include/cmsis_gcc.h **** {
 131:Drivers/CMSIS/include/cmsis_gcc.h ****   __ASM volatile ("cpsie i" : : : "memory");
 132:Drivers/CMSIS/include/cmsis_gcc.h **** }
 133:Drivers/CMSIS/include/cmsis_gcc.h **** 
 134:Drivers/CMSIS/include/cmsis_gcc.h **** 
 135:Drivers/CMSIS/include/cmsis_gcc.h **** /**
 136:Drivers/CMSIS/include/cmsis_gcc.h ****   \brief   Disable IRQ Interrupts
 137:Drivers/CMSIS/include/cmsis_gcc.h ****   \details Disables IRQ interrupts by setting the I-bit in the CPSR.
 138:Drivers/CMSIS/include/cmsis_gcc.h ****            Can only be executed in Privileged modes.
 139:Drivers/CMSIS/include/cmsis_gcc.h ****  */
 140:Drivers/CMSIS/include/cmsis_gcc.h **** __STATIC_FORCEINLINE void __disable_irq(void)
 282              		.loc 2 140 27 view .LVU61
 283              	.LBB5:
 141:Drivers/CMSIS/include/cmsis_gcc.h **** {
 142:Drivers/CMSIS/include/cmsis_gcc.h ****   __ASM volatile ("cpsid i" : : : "memory");
 284              		.loc 2 142 3 view .LVU62
 285              		.syntax unified
 286              	@ 142 "Drivers/CMSIS/include/cmsis_gcc.h" 1
 287 0000 72B6     		cpsid i
 288              	@ 0 "" 2
 289              		.thumb
 290              		.syntax unified
 291              	.L13:
 292              	.LBE5:
 293              	.LBE4:
  70:src/main.c    ****   while (1)
 294              		.loc 1 70 3 view .LVU63
 295              		.loc 1 70 9 view .LVU64
 296 0002 FEE7     		b	.L13
 297              		.cfi_endproc
 298              	.LFE68:
 300              		.section	.rodata
 301              		.align	2
 302              		.set	.LANCHOR0,. + 0
 303              	.LC0:
 304 0000 00000000 		.word	stm32_i2c_write_reg
 305 0004 00000000 		.word	stm32_i2c_read_reg
 306              		.text
 307              	.Letext0:
 308              		.file 3 "C:/msys64/mingw64/arm-none-eabi/include/machine/_default_types.h"
ARM GAS  C:\Users\binhp\AppData\Local\Temp\ccmgFTj5.s 			page 10


 309              		.file 4 "C:/msys64/mingw64/arm-none-eabi/include/sys/_stdint.h"
 310              		.file 5 "Drivers/CMSIS/Device/ST/STM32F1xx/include/stm32f103xb.h"
 311              		.file 6 "Drivers/STM32F1xx_HAL_Driver/inc/stm32f1xx_hal_def.h"
 312              		.file 7 "Drivers/STM32F1xx_HAL_Driver/inc/stm32f1xx_hal_gpio.h"
 313              		.file 8 "../../../inc/mpu6050_hw.h"
 314              		.file 9 "../../../inc/mpu6050.h"
 315              		.file 10 "inc/hal_uart.h"
 316              		.file 11 "inc/hal_i2c.h"
 317              		.file 12 "inc/hal_gpio.h"
 318              		.file 13 "inc/syscfg.h"
 319              		.file 14 "Drivers/STM32F1xx_HAL_Driver/inc/stm32f1xx_hal.h"
ARM GAS  C:\Users\binhp\AppData\Local\Temp\ccmgFTj5.s 			page 11

